(lp1
(dp2
S'i'
I0
sS'coefs_errhi'
p3
(dp4
S'c4_th2'
p5
F0.28532733108770092
sS'c2_th1'
p6
F0.30884365649377477
sS'c2_th2'
p7
F0.28950283857281478
sS'c3_th2'
p8
F0.65864005301652728
sS'c1_th2'
p9
F0.17556585768506305
sS'c1_th1'
p10
F0.1981104248998995
sS'c4_th1'
p11
F0.3022190979877552
sS'c3_th1'
p12
F0.63455238174947115
sS'cy_th2'
p13
F0.044669911068006066
sS'cy_th1'
p14
F0.025093983339225329
ssS'mass_bin'
p15
(lp16
F744
aF856
asS'coefs_errlo'
p17
(dp18
g5
F-0.30606224398812504
sg6
F-0.28030987736752372
sg7
F-0.2648830250779115
sg8
F0
sg9
F-0.19809540995750716
sg10
F-0.19499203333723109
sg11
F-0.32696086043799405
sg12
F-0.65365334670057418
sg13
F-0.028867245848743409
sg14
F0
ssS'coefs'
p19
(dp20
g5
F0.078674473407287282
sg6
F-0.37162677930880395
sg7
F-0.56687352639598121
sg8
F-1.0796218610480903
sg9
F-0.0043282110519327066
sg10
F-0.1767912943231385
sg11
F-0.16123688640857492
sg12
F-0.63583611593509071
sg13
F0.045068713394985582
sg14
F3.9386403027918959e-09
ssa(dp21
S'i'
I1
sg3
(dp22
g5
F0.11653087922514627
sg6
F0.12052543983709707
sg7
F0.10915474814756709
sg8
F0.24641826521108323
sg9
F0.073484477439737142
sg10
F0.076507772694235476
sg11
F0.11970315027853119
sg12
F0.25188765407088731
sg13
F0.0092865344647525723
sg14
F0.0061472239371376291
ssg15
(lp23
F856
aF936
asg17
(dp24
g5
F-0.1154418348538012
sg6
F-0.11198603846651944
sg7
F-0.1094368658608318
sg8
F-0.23976317107799827
sg9
F-0.074923301367765399
sg10
F-0.077262074202438191
sg11
F-0.12740415755839479
sg12
F-0.253491544799266
sg13
F0
sg14
F0
ssg19
(dp25
g5
F-0.020323071987913055
sg6
F-0.30990117775055248
sg7
F-0.49196702170550166
sg8
F-0.51241681812030837
sg9
F-0.13023225315669501
sg10
F-0.13210956434574217
sg11
F-0.18782133927144212
sg12
F-0.74872701014978704
sg13
F5.2356087520966099e-08
sg14
F4.5130565951012613e-14
ssa(dp26
S'i'
I2
sg3
(dp27
g5
F0.18492723070610251
sg6
F0.21250841038159837
sg7
F0.057958315849740635
sg8
F0.48390625506583507
sg9
F0.063472315419632733
sg10
F0.13992100622054252
sg11
F0.21136338380972755
sg12
F0.39080284229027595
sg13
F0.010649043583009117
sg14
F0.015011828003298536
ssg15
(lp28
F936
aF1050
asg17
(dp29
g5
F0
sg6
F-0.19725392589114954
sg7
F-0.17630653479846645
sg8
F0
sg9
F-0.15973643734936718
sg10
F0
sg11
F-0.22488768337103132
sg12
F-0.45360519562705504
sg13
F0
sg14
F0
ssg19
(dp30
g5
F-0.49999867642252427
sg6
F-0.63461334429864147
sg7
F-0.022432210107675932
sg8
F-1.4730880742515413
sg9
F0.15848851956770627
sg10
F-0.41657310086883559
sg11
F0.054643092259460291
sg12
F0.22184500085457048
sg13
F1.5675100106804507e-10
sg14
F5.007150249980441e-11
ssa(dp31
S'i'
I3
sg3
(dp32
g5
F0.4488670707009414
sg6
F0.39517660087435258
sg7
F0.48932240677772687
sg8
F0.80376791400163339
sg9
F0.28341846225948497
sg10
F0.29003748193202683
sg11
F0.3737623001155429
sg12
F0.92298819621094741
sg13
F0.048488691971412229
sg14
F0.068340135005148364
ssg15
(lp33
F1050
aI1200
asg17
(dp34
g5
F-0.50814471650042403
sg6
F-0.342394936748949
sg7
F-0.42109939128451651
sg8
F-0.96921747165836736
sg9
F0
sg10
F0
sg11
F-0.41897430936753677
sg12
F-0.98680466484639084
sg13
F0
sg14
F-0.047120579507779647
ssg19
(dp35
g5
F0.1083193593380074
sg6
F-0.9250967084628543
sg7
F-0.56558799691569739
sg8
F-0.30993461341455886
sg9
F-0.34328755595739441
sg10
F-0.26522069033835383
sg11
F0.34657034877815318
sg12
F-0.29183174085981767
sg13
F9.915150028794173e-08
sg14
F0.048807555790639612
ssa(dp36
S'i'
I4
sg3
(dp37
g5
F1.0565463712157266
sg6
F0.15453330514370761
sg7
F0.1704810109310865
sg8
F1.8637536625206375
sg9
F0.27049431366068594
sg10
F0.30083735190556748
sg11
F0.35054748297508243
sg12
F0.96133632998829976
sg13
F0.2116801518465268
sg14
F0.053447015113662573
ssg15
(lp38
I1200
aI1350
asg17
(dp39
g5
F-1.0565463712157266
sg6
F-0.32080112962986795
sg7
F-0.42719617532397475
sg8
F0
sg9
F-0.53614147814467472
sg10
F0
sg11
F0
sg12
F0
sg13
F0
sg14
F0
ssg19
(dp40
g5
F-0.49999841802912337
sg6
F-0.16993148381985224
sg7
F-0.069243311873911528
sg8
F-1.1748801996844342
sg9
F0.20947949443044067
sg10
F-0.27512035785419825
sg11
F-0.49999975477413239
sg12
F-0.92933856551161198
sg13
F0.15752515616302565
sg14
F8.3772672132553794e-10
ssa(dp41
S'i'
I5
sg3
(dp42
g5
F0.25942240784569987
sg6
F0.56898578780396358
sg7
F0.44178124492707782
sg8
F0
sg9
F0.2798015365734895
sg10
F0.5085509921952539
sg11
F0
sg12
F1.9208866168646939
sg13
F0.38200497106940601
sg14
F0.041771494072532396
ssg15
(lp43
I1350
aI1500
asg17
(dp44
g5
F0
sg6
F-0.56898578780396358
sg7
F-0.32401657359973535
sg8
F-1.1295062248738574
sg9
F0
sg10
F0
sg11
F-0.79036362296770335
sg12
F-1.9208866168646939
sg13
F-0.38200497106940601
sg14
F0
ssg19
(dp45
g5
F-0.49999981525856518
sg6
F-1.557998315835867
sg7
F0.090814890675937399
sg8
F0.9999975317141625
sg9
F-0.49999829199668855
sg10
F-0.272746580541393
sg11
F0.91436848923007208
sg12
F-0.15814744666566138
sg13
F0.3835901601842221
sg14
F2.6738448899443767e-08
ssa(dp46
S'i'
I6
sg3
(dp47
g5
F0.84381587241874056
sg6
F0.45301437880253481
sg7
F0.36020843436993322
sg8
F2.3085679721932113
sg9
F0.33088172592421283
sg10
F0
sg11
F1.0607812017330138
sg12
F2.4340598890212868
sg13
F0.46714626994544206
sg14
F0.088423721509750669
ssg15
(lp48
I1500
aI1700
asg17
(dp49
g5
F0
sg6
F-0.96863892682635311
sg7
F-0.73264799717598639
sg8
F0
sg9
F0
sg10
F-0.70316524702905925
sg11
F0
sg12
F0
sg13
F-0.31466317650665948
sg14
F0
ssg19
(dp50
g5
F-0.49999980263008242
sg6
F-0.40673067274290275
sg7
F-0.099364719696860559
sg8
F-1.4999985734795303
sg9
F0.006496454424935294
sg10
F0.30999847271483827
sg11
F-0.30171047102064541
sg12
F-1.4998723579822406
sg13
F0.43995561140810185
sg14
F3.5260960418170839e-07
ssa.