(lp1
(dp2
S'i'
I0
sS'coefs_errhi'
p3
(dp4
S'c3_th'
p5
F0.70973945628128599
sS'c4_th'
p6
F0.18625429524154782
sS'cy_th'
p7
F0.025083206753408333
sS'c1_th'
p8
F0.12605869111159618
sS'c2_th'
p9
F0.16634877326371816
ssS'mass_bin'
p10
(lp11
F744
aF744
asS'coefs_errlo'
p12
(dp13
g5
F-0.70973945628128599
sg6
F-0.18625429524154782
sg7
F-0.025083206753408333
sg8
F-0.12605869111159618
sg9
F-0.16634877326371816
ssS'coefs'
p14
(dp15
g5
F-0.59757482950918694
sg6
F-0.078094693961939243
sg7
F7.6509976670857682e-07
sg8
F-0.093106347990921323
sg9
F-0.46968335215405466
ssa(dp16
S'i'
I1
sg3
(dp17
g5
F0.71816512455597892
sg6
F0.17872829924213179
sg7
F0.014886744474090274
sg8
F0.13440757122253694
sg9
F0.16138407877040001
ssg10
(lp18
F850
aF850
asg12
(dp19
g5
F-0.71816512455597892
sg6
F-0.17872829924213179
sg7
F-0.014886744474090274
sg8
F-0.13440757122253694
sg9
F-0.16138407877040001
ssg14
(dp20
g5
F-0.59373040060768079
sg6
F-0.025405530415875233
sg7
F1.6708024963563162e-09
sg8
F-0.088788827555662087
sg9
F-0.44511776486090016
ssa(dp21
S'i'
I2
sg3
(dp22
g5
F0.76174715381702629
sg6
F0.20589295151106007
sg7
F0.031367424985499881
sg8
F0.13054025522328278
sg9
F0.18604282723584692
ssg10
(lp23
F870
aF870
asg12
(dp24
g5
F-0.76174715381702629
sg6
F-0.20589295151106007
sg7
F-0.031367424985499881
sg8
F-0.13054025522328278
sg9
F-0.18604282723584692
ssg14
(dp25
g5
F-0.53883179542177295
sg6
F0.074426057591778005
sg7
F2.5014282462043624e-07
sg8
F-0.034152220672192479
sg9
F-0.48853243507593125
ssa(dp26
S'i'
I3
sg3
(dp27
g5
F0.34772914321401183
sg6
F0.16397206781920487
sg7
F0.0064626186050019407
sg8
F0.11343018210700528
sg9
F0.14683778678146475
ssg10
(lp28
I880
aI880
asg12
(dp29
g5
F-0.34772914321401183
sg6
F-0.16397206781920487
sg7
F-0.0064626186050019407
sg8
F-0.11343018210700528
sg9
F-0.14683778678146475
ssg14
(dp30
g5
F-0.36069764935201815
sg6
F-0.021012683436903323
sg7
F1.1278455169794199e-08
sg8
F-0.19020162841915111
sg9
F-0.51905419649741802
ssa(dp31
S'i'
I4
sg3
(dp32
g5
F0.34054209073914632
sg6
F0.15984162252147049
sg7
F0.0067178547285193513
sg8
F0.10790807243534023
sg9
F0.14416441787034534
ssg10
(lp33
F890
aF890
asg12
(dp34
g5
F-0.34054209073914632
sg6
F-0.15984162252147049
sg7
F-0.0067178547285193513
sg8
F-0.10790807243534023
sg9
F-0.14416441787034534
ssg14
(dp35
g5
F0.12094989103554299
sg6
F-0.052051751124564727
sg7
F1.7147025399566473e-07
sg8
F-0.3298920493156916
sg9
F-0.47251844954140254
ssa(dp36
S'i'
I5
sg3
(dp37
g5
F0.055959531424075781
sg6
F0.11496296066448067
sg7
F0.0045612741395854861
sg8
F0.22984763664167929
sg9
F0.1079458926621597
ssg10
(lp38
F900
aF900
asg12
(dp39
g5
F-0.055959531424075781
sg6
F-0.11496296066448067
sg7
F-0.0045612741395854861
sg8
F-0.22984763664167929
sg9
F-0.1079458926621597
ssg14
(dp40
g5
F-0.69999997238964529
sg6
F-0.17229504339060475
sg7
F1.921358055989586e-08
sg8
F-2.3569657325861471e-06
sg9
F-0.31918116531018281
ssa(dp41
S'i'
I6
sg3
(dp42
g5
F0.31947171172312872
sg6
F0.18748728502124518
sg7
F0.025802945502904989
sg8
F0.051379950281399633
sg9
F0.16958236283619443
ssg10
(lp43
F910
aF910
asg12
(dp44
g5
F-0.31947171172312872
sg6
F-0.18748728502124518
sg7
F-0.025802945502904989
sg8
F-0.051379950281399633
sg9
F-0.16958236283619443
ssg14
(dp45
g5
F-0.69999998204611624
sg6
F-0.34789644624155797
sg7
F0.020285860479296647
sg8
F-0.055743243602526804
sg9
F-0.24369950846402522
ssa(dp46
S'i'
I7
sg3
(dp47
g5
F0.17342970428950233
sg6
F0.080301610458929529
sg7
F0.011903676471816754
sg8
F0.041577238075292455
sg9
F0.072591675566818337
ssg10
(lp48
I920
aI920
asg12
(dp49
g5
F-0.17342970428950233
sg6
F-0.080301610458929529
sg7
F-0.011903676471816754
sg8
F-0.041577238075292455
sg9
F-0.072591675566818337
ssg14
(dp50
g5
F-0.69999983874430449
sg6
F-0.10230536475580365
sg7
F0.0032536614658544849
sg8
F-0.097077029475429066
sg9
F-0.38730227251678873
ssa(dp51
S'i'
I8
sg3
(dp52
g5
F0.89075519617531307
sg6
F0.18270043841447961
sg7
F0.01547060757003646
sg8
F0.054695981064382448
sg9
F0.16518240985479471
ssg10
(lp53
I940
aI940
asg12
(dp54
g5
F-0.89075519617531307
sg6
F-0.18270043841447961
sg7
F-0.01547060757003646
sg8
F-0.054695981064382448
sg9
F-0.16518240985479471
ssg14
(dp55
g5
F-0.69999864589593475
sg6
F-0.073639852053977828
sg7
F2.2436523638980077e-08
sg8
F-0.070841085263828152
sg9
F-0.42504215386073585
ssa(dp56
S'i'
I9
sg3
(dp57
g5
F0.48369884364802662
sg6
F0.20539222374353561
sg7
F0.0071581719269064592
sg8
F0.15652358510077413
sg9
F0.18514607681450879
ssg10
(lp58
I970
aI970
asg12
(dp59
g5
F-0.48369884364802662
sg6
F-0.20539222374353561
sg7
F-0.0071581719269064592
sg8
F-0.15652358510077413
sg9
F-0.18514607681450879
ssg14
(dp60
g5
F-0.073780385411560956
sg6
F0.37383335069723245
sg7
F1.3521467279176136e-10
sg8
F-0.14984588123547882
sg9
F-0.79594886348516125
ssa(dp61
S'i'
I10
sg3
(dp62
g5
F0.84735732158549537
sg6
F0.32213696398520203
sg7
F0.036741221054187312
sg8
F0.1690438290781176
sg9
F1.1826804851978043
ssg10
(lp63
I1040
aI1040
asg12
(dp64
g5
F-0.84735732158549537
sg6
F-0.32213696398520203
sg7
F-0.036741221054187312
sg8
F-0.1690438290781176
sg9
F-1.1826804851978043
ssg14
(dp65
g5
F-0.40066381646486193
sg6
F-0.54801834173941444
sg7
F0.039287152811774084
sg8
F-0.21185297372814582
sg9
F-0.00016279147470132926
ssa(dp66
S'i'
I11
sg3
(dp67
g5
F1.3765272192325131
sg6
F0.12270561949259207
sg7
F0.23155155961633964
sg8
F0.77860171662972477
sg9
F0.076110832404961304
ssg10
(lp68
I1300
aI1300
asg12
(dp69
g5
F-1.3765272192325131
sg6
F-0.12270561949259207
sg7
F-0.23155155961633964
sg8
F-0.77860171662972477
sg9
F-0.076110832404961304
ssg14
(dp70
g5
F0.6981962862826705
sg6
F0.13839192960504765
sg7
F0.11325608252575292
sg8
F-0.43615364236826304
sg9
F-0.69197065910951616
ssa.