(lp1
(dp2
S'i'
I0
sS'coefs_errhi'
p3
(dp4
S'c3_th'
p5
F1.0517759638851585
sS'c4_th'
p6
F0.45197960673017173
sS'cy_th'
p7
F0.025286421568506356
sS'c1_th'
p8
F0.75167319964178492
sS'c2_th'
p9
F0.39971313350174514
ssS'mass_bin'
p10
(lp11
F744
aF744
asS'coefs_errlo'
p12
(dp13
g5
F-1.0517759638851585
sg6
F-0.45197960673017173
sg7
F-0.025286421568506356
sg8
F-0.75167319964178492
sg9
F-0.39971313350174514
ssS'coefs'
p14
(dp15
g5
F-0.60621227861313187
sg6
F-0.077949179202473462
sg7
F1.9552466329342266e-07
sg8
F-0.089901513877874706
sg9
F-0.46985716506961905
ssa(dp16
S'i'
I1
sg3
(dp17
g5
F0.38725598719198018
sg6
F0.17483030767683599
sg7
F0.014997285856115705
sg8
F0.11911737953185147
sg9
F0.15831578676910052
ssg10
(lp18
F850
aF850
asg12
(dp19
g5
F-0.38725598719198018
sg6
F-0.17483030767683599
sg7
F-0.014997285856115705
sg8
F-0.11911737953185147
sg9
F-0.15831578676910052
ssg14
(dp20
g5
F-0.59510308142759394
sg6
F-0.024977930788822378
sg7
F2.8343354829818423e-08
sg8
F-0.088547438977994442
sg9
F-0.4455620757248191
ssa(dp21
S'i'
I2
sg3
(dp22
g5
F0.51736222756909589
sg6
F0.21357536687073153
sg7
F0.031531407820427043
sg8
F0.16811866793199992
sg9
F0.192310987375854
ssg10
(lp23
F870
aF870
asg12
(dp24
g5
F-0.51736222756909589
sg6
F-0.21357536687073153
sg7
F-0.031531407820427043
sg8
F-0.16811866793199992
sg9
F-0.192310987375854
ssg14
(dp25
g5
F-0.53934160149152666
sg6
F0.074764174969427888
sg7
F1.5526627650253033e-08
sg8
F-0.033993994099657421
sg9
F-0.48881532093420521
ssa(dp26
S'i'
I3
sg3
(dp27
g5
F0.36201596670373626
sg6
F0.16201963404888087
sg7
F0.0064719816885126236
sg8
F0.11258353916445663
sg9
F0.14512666291018961
ssg10
(lp28
I880
aI880
asg12
(dp29
g5
F-0.36201596670373626
sg6
F-0.16201963404888087
sg7
F-0.0064719816885126236
sg8
F-0.11258353916445663
sg9
F-0.14512666291018961
ssg14
(dp30
g5
F-0.36694601967407903
sg6
F-0.024076495634766437
sg7
F2.6660959923097138e-07
sg8
F-0.18873775710187202
sg9
F-0.5162189463585668
ssa(dp31
S'i'
I4
sg3
(dp32
g5
F0.33194042897768838
sg6
F0.14151484810117154
sg7
F0.0067239067954552867
sg8
F0.1040317106748137
sg9
F0.12766071779358934
ssg10
(lp33
F890
aF890
asg12
(dp34
g5
F-0.33194042897768838
sg6
F-0.14151484810117154
sg7
F-0.0067239067954552867
sg8
F-0.1040317106748137
sg9
F-0.12766071779358934
ssg14
(dp35
g5
F0.12083533066800367
sg6
F-0.05193968845354846
sg7
F3.3730651605168305e-10
sg8
F-0.32992826463511116
sg9
F-0.47263795812063925
ssa(dp36
S'i'
I5
sg3
(dp37
g5
F0.12087776820933882
sg6
F0.084259733398171111
sg7
F0.0049929813817153057
sg8
F0.060082244501248994
sg9
F0.076513983519892914
ssg10
(lp38
F900
aF900
asg12
(dp39
g5
F-0.12087776820933882
sg6
F-0.084259733398171111
sg7
F-0.0049929813817153057
sg8
F-0.060082244501248994
sg9
F-0.076513983519892914
ssg14
(dp40
g5
F-0.79350080647685961
sg6
F-0.2455545917615764
sg7
F7.3308945580663476e-09
sg8
F-5.5087069217307771e-07
sg9
F-0.25629814096666115
ssa(dp41
S'i'
I6
sg3
(dp42
g5
F0.54782655240069933
sg6
F0.18866714273576235
sg7
F0.031408708116832412
sg8
F0.69575254314696133
sg9
F0.1705041574313525
ssg10
(lp43
F910
aF910
asg12
(dp44
g5
F-0.54782655240069933
sg6
F-0.18866714273576235
sg7
F-0.031408708116832412
sg8
F-0.69575254314696133
sg9
F-0.1705041574313525
ssg14
(dp45
g5
F-0.91847830967633226
sg6
F-0.38597800157261547
sg7
F0.026044134866519408
sg8
F-1.9715936847686244e-05
sg9
F-0.21071581305596121
ssa(dp46
S'i'
I7
sg3
(dp47
g5
F0.16815272523285996
sg6
F0.18774650604869941
sg7
F0.014625972435267365
sg8
F0.15755630360488226
sg9
F0.16930539486866913
ssg10
(lp48
I920
aI920
asg12
(dp49
g5
F-0.16815272523285996
sg6
F-0.18774650604869941
sg7
F-0.014625972435267365
sg8
F-0.15755630360488226
sg9
F-0.16930539486866913
ssg14
(dp50
g5
F-1.0740760311235453
sg6
F-0.18945708645992143
sg7
F0.0067107385940447517
sg8
F-1.1049928416717592e-07
sg9
F-0.31207249506554513
ssa(dp51
S'i'
I8
sg3
(dp52
g5
F0.6131846380936381
sg6
F0.21836031419187885
sg7
F0.019896529946623082
sg8
F0.87652842003003339
sg9
F0.19530124698189905
ssg10
(lp53
I940
aI940
asg12
(dp54
g5
F-0.6131846380936381
sg6
F-0.21836031419187885
sg7
F-0.019896529946623082
sg8
F-0.87652842003003339
sg9
F-0.19530124698189905
ssg14
(dp55
g5
F-0.94832812933086919
sg6
F-0.13132134349994018
sg7
F6.6465682957428385e-08
sg8
F-7.9271375019729362e-09
sg9
F-0.37506781046231619
ssa(dp56
S'i'
I9
sg3
(dp57
g5
F0.46164353611040454
sg6
F0.20229592526234008
sg7
F0.0071553920186350484
sg8
F0.14166515662323098
sg9
F0.18270067395075174
ssg10
(lp58
I970
aI970
asg12
(dp59
g5
F-0.46164353611040454
sg6
F-0.20229592526234008
sg7
F-0.0071553920186350484
sg8
F-0.14166515662323098
sg9
F-0.18270067395075174
ssg14
(dp60
g5
F-0.073051789497157182
sg6
F0.37402840854702868
sg7
F1.6141354919341211e-10
sg8
F-0.14999832666348012
sg9
F-0.79611724537194839
ssa(dp61
S'i'
I10
sg3
(dp62
g5
F0.45252286059530511
sg6
F0.71971192293743269
sg7
F0.03436030807532528
sg8
F0.11455147003453381
sg9
F1.491190324118115
ssg10
(lp63
I1040
aI1040
asg12
(dp64
g5
F-0.45252286059530511
sg6
F-0.71971192293743269
sg7
F-0.03436030807532528
sg8
F-0.11455147003453381
sg9
F-1.491190324118115
ssg14
(dp65
g5
F-0.4050298101517138
sg6
F-0.54803493882941856
sg7
F0.039413416303683002
sg8
F-0.21062630158830964
sg9
F-4.1281584545860284e-05
ssa(dp66
S'i'
I11
sg3
(dp67
g5
F2.1616999100546508
sg6
F0.36159348928358492
sg7
F0.084902089673010273
sg8
F0.26958257617105619
sg9
F0.32600887618835883
ssg10
(lp68
I1300
aI1300
asg12
(dp69
g5
F-2.1616999100546508
sg6
F-0.36159348928358492
sg7
F-0.084902089673010273
sg8
F-0.26958257617105619
sg9
F-0.32600887618835883
ssg14
(dp70
g5
F0.50078404800917076
sg6
F0.12279678059390386
sg7
F0.12035117061108697
sg8
F-0.38191766082247902
sg9
F-0.67992463151827909
ssa.