(lp1
(dp2
S'i'
I0
sS'coefs_errhi'
p3
(dp4
S'c4_th2'
p5
F0.26636348092504208
sS'c2_th1'
p6
F0.22533367590714259
sS'c2_th2'
p7
F0.2740607611145911
sS'c3_th2'
p8
F0.6141171590599056
sS'c1_th2'
p9
F0.17634201379349318
sS'c1_th1'
p10
F0.17981938379271453
sS'c4_th1'
p11
F0.27697079496958332
sS'c3_th1'
p12
F0.57422941174335296
sS'cy_th2'
p13
F0.045424688278960727
sS'cy_th1'
p14
F0.020767205588425906
ssS'mass_bin'
p15
(lp16
F744
aF856
asS'coefs_errlo'
p17
(dp18
g5
F-0.28783619476783751
sg6
F-0.25813496076810022
sg7
F-0.24956568151642836
sg8
F0
sg9
F-0.18343295442440016
sg10
F-0.17634562183404615
sg11
F0
sg12
F-0.59041314643451515
sg13
F-0.031735980129986123
sg14
F0
ssS'coefs'
p19
(dp20
g5
F-0.091023041518322245
sg6
F-0.26729772333100232
sg7
F-0.40668409377841597
sg8
F-1.0257127116668006
sg9
F-0.0084957800701653263
sg10
F-0.11631666197558843
sg11
F-0.30283061881246476
sg12
F-0.74435688831668068
sg13
F0.052372885044527195
sg14
F1.9530155270786054e-09
ssa(dp21
S'i'
I1
sg3
(dp22
g5
F0.1025780824225466
sg6
F0.10576836275872335
sg7
F0.099916260583877647
sg8
F0.22028114868921123
sg9
F0.067654173633119888
sg10
F0.069500971659098604
sg11
F0.10924922812623693
sg12
F0.22760398153308148
sg13
F0.0037990333390055921
sg14
F0.0069600937603725918
ssg15
(lp23
F856
aF936
asg17
(dp24
g5
F-0.10548723944394021
sg6
F-0.10269739138293037
sg7
F-0.096580252185550899
sg8
F-0.22204578550917328
sg9
F-0.067335910042566005
sg10
F-0.06951909173502685
sg11
F-0.11180920432766039
sg12
F-0.22831076657889379
sg13
F0
sg14
F0
ssg19
(dp25
g5
F-0.035531166319151486
sg6
F-0.28376215054949339
sg7
F-0.46183087260078493
sg8
F-0.51457441056858766
sg9
F-0.090930253983474596
sg10
F-0.082868977317865133
sg11
F-0.20306282358274058
sg12
F-0.72434952838966282
sg13
F2.6233544780929208e-09
sg14
F2.4413002902567982e-07
ssa(dp26
S'i'
I2
sg3
(dp27
g5
F0.19787187614000382
sg6
F0.2005866144634125
sg7
F0.05343463427992802
sg8
F0.42456609688564795
sg9
F0.054447395328813139
sg10
F0.13205891260342709
sg11
F0.20012964589294546
sg12
F0.41109285370085413
sg13
F0.009617606056694792
sg14
F0.013519102182620996
ssg15
(lp28
F936
aF1050
asg17
(dp29
g5
F0
sg6
F-0.18764829214771267
sg7
F-0.18779326492378656
sg8
F0
sg9
F-0.13506392444829662
sg10
F0
sg11
F-0.2116114407821193
sg12
F-0.42740724075811098
sg13
F0
sg14
F0
ssg19
(dp30
g5
F-0.4999998012457626
sg6
F-0.45340691800872657
sg7
F0.0085434868965892363
sg8
F-1.4999882101758373
sg9
F0.18850862327395235
sg10
F-0.39292433601296034
sg11
F-0.1463126312399694
sg12
F0.23097229014415688
sg13
F6.6374683527214984e-12
sg14
F1.3058183978564841e-09
ssa(dp31
S'i'
I3
sg3
(dp32
g5
F0.37459821512691061
sg6
F0.33939866915279254
sg7
F0.39716018257923663
sg8
F0.79356479790530043
sg9
F0.24597829328345833
sg10
F0.27804377493193194
sg11
F0.39350093684185267
sg12
F0.88089721385004838
sg13
F0.045342625778671743
sg14
F0.060717531327704022
ssg15
(lp33
F1050
aI1200
asg17
(dp34
g5
F-0.41540506233487778
sg6
F-0.36611194680691761
sg7
F-0.34951327095874962
sg8
F-0.82440137808097091
sg9
F0
sg10
F0
sg11
F0
sg12
F-0.95715687457640231
sg13
F0
sg14
F0
ssg19
(dp35
g5
F0.26911462312018797
sg6
F-0.42266400056717934
sg7
F-0.74436706957305132
sg8
F-0.33020282969384107
sg9
F-0.26850511505719687
sg10
F-0.28671962392810552
sg11
F-0.1998465404888532
sg12
F-0.52864885822547625
sg13
F3.8192267626246945e-07
sg14
F0.030007048700830263
ssa(dp36
S'i'
I4
sg3
(dp37
g5
F0.62305772436031104
sg6
F0.15471394784726106
sg7
F0.25997287741975245
sg8
F1.5447812005746242
sg9
F0.15995194559989026
sg10
F0.39435211775392209
sg11
F1.264914065019743
sg12
F0.52415446982183689
sg13
F0.17509551199690179
sg14
F0.038107592993824012
ssg15
(lp38
I1200
aI1350
asg17
(dp39
g5
F0
sg6
F-0.5279033382477627
sg7
F-0.56842733720710559
sg8
F0
sg9
F-0.45935513007401502
sg10
F0
sg11
F-1.264914065019743
sg12
F-1.1703649804183494
sg13
F-0.14716317229007492
sg14
F0
ssg19
(dp40
g5
F-0.3710045250345208
sg6
F-0.048032515982427082
sg7
F-0.17769678735276795
sg8
F-1.4985580506553864
sg9
F0.29012072418867252
sg10
F-0.49812345950610398
sg11
F-0.49941526969553796
sg12
F-0.097278450587467091
sg13
F0.23168825579847696
sg14
F9.2233098991645335e-08
ssa(dp41
S'i'
I5
sg3
(dp42
g5
F0.18781487504029248
sg6
F0.23263329017817347
sg7
F0.24595988933195301
sg8
F0
sg9
F0.33941889561732796
sg10
F0.27738135259252689
sg11
F1.49633145685661
sg12
F0
sg13
F0.27604772209949857
sg14
F0.15367295244686491
ssg15
(lp43
I1350
aI1500
asg17
(dp44
g5
F0
sg6
F-0.79078894780395703
sg7
F-0.21822294160078354
sg8
F-0.94514091400440514
sg9
F0
sg10
F0
sg11
F-1.49633145685661
sg12
F-0.96964324145613889
sg13
F0
sg14
F0
ssg19
(dp45
g5
F-0.4999997589551487
sg6
F-0.034974644362579577
sg7
F-0.11273928903590846
sg8
F0.99999602307121283
sg9
F-0.43151080700610395
sg10
F-0.49998979919544889
sg11
F-0.49885128419072922
sg12
F0.31263667743279955
sg13
F2.1152417070791074e-05
sg14
F1.1780185361687234e-05
ssa(dp46
S'i'
I6
sg3
(dp47
g5
F0.55422140538662146
sg6
F0.28941723374597
sg7
F0.30221263889281713
sg8
F1.6410094412361882
sg9
F0.79157529255353865
sg10
F0.79529232642922687
sg11
F0.67428844357453754
sg12
F1.6944371535684324
sg13
F0.40345159729652913
sg14
F0.1332266959576672
ssg15
(lp48
I1500
aI1700
asg17
(dp49
g5
F0
sg6
F-0.62208211445492267
sg7
F-0.51393586488515119
sg8
F-1.6410094412361882
sg9
F-0.79157529255353865
sg10
F-0.79529232642922687
sg11
F0
sg12
F-1.6944371535684324
sg13
F-0.2503810148064286
sg14
F0
ssg19
(dp50
g5
F-0.49999997109928862
sg6
F-0.1201924645483432
sg7
F-0.083785063064586218
sg8
F-0.93016040676155853
sg9
F0.08469494450200199
sg10
F0.10584356596724909
sg11
F-0.49981129226078391
sg12
F-0.43493071001054928
sg13
F0.28062724334028699
sg14
F1.6947146558310422e-07
ssa.