(lp1
(dp2
S'i'
I0
sS'coefs_errhi'
p3
(dp4
S'c3_th'
p5
F0.41416584240036425
sS'c4_th'
p6
F0.18677268224694146
sS'cy_th'
p7
F0.01215811452070505
sS'c1_th'
p8
F0.12843314104137674
sS'c2_th'
p9
F0.17496669238176663
ssS'mass_bin'
p10
(lp11
F744
aF856
asS'coefs_errlo'
p12
(dp13
g5
F-0.41821877340813007
sg6
F-0.19345619189674396
sg7
F0
sg8
F-0.12762653138790134
sg9
F-0.16719754629838704
ssS'coefs'
p14
(dp15
g5
F-0.71626392000338068
sg6
F-0.20287710440392753
sg7
F9.5985929204900344e-09
sg8
F-0.063857029668821119
sg9
F-0.33010728213608953
ssa(dp16
S'i'
I1
sg3
(dp17
g5
F0.15664269551039464
sg6
F0.07137378267194866
sg7
F0.002078693900389247
sg8
F0.048299500943795079
sg9
F0.065314279557085714
ssg10
(lp18
F856
aF936
asg12
(dp19
g5
F-0.15751009189749793
sg6
F-0.072471235988581614
sg7
F0
sg8
F-0.048145062276884469
sg9
F-0.064064806104352973
ssg14
(dp20
g5
F-0.57530721339450164
sg6
F-0.11404181856009465
sg7
F1.6860950968755617e-09
sg8
F-0.093871618644504995
sg9
F-0.3991589813107177
ssa(dp21
S'i'
I2
sg3
(dp22
g5
F0.3454790466443769
sg6
F0.15936514647369365
sg7
F0.012158560132474804
sg8
F0.10800842861355778
sg9
F0.14944758989205348
ssg10
(lp23
F936
aF1000
asg12
(dp24
g5
F-0.35209795103761887
sg6
F-0.16554753559082652
sg7
F0
sg8
F-0.10644070538057074
sg9
F-0.14227274386271363
ssg14
(dp25
g5
F-0.69626955981297201
sg6
F-0.035555916527923448
sg7
F9.9549187726477584e-08
sg8
F-0.068555927331254152
sg9
F-0.4593749735042556
ssa(dp26
S'i'
I3
sg3
(dp27
g5
F0.46688393433275382
sg6
F0.21766707246726699
sg7
F0.014019907703880716
sg8
F0.14443536691513711
sg9
F0.20887588111047714
ssg10
(lp28
F1000
aI1200
asg12
(dp29
g5
F-0.47520102697714095
sg6
F-0.22908919505517772
sg7
F0
sg8
F-0.14262439171636834
sg9
F-0.19618653101965366
ssg14
(dp30
g5
F-0.6033600399560326
sg6
F-0.22243092702350531
sg7
F4.6054989821797676e-09
sg8
F-0.031191358150551629
sg9
F-0.25416166059669631
ssa(dp31
S'i'
I4
sg3
(dp32
g5
F0
sg6
F0.29537920240376803
sg7
F0.066635169036607766
sg8
F0.20593855327131985
sg9
F0.28389431568880463
ssg10
(lp33
I1200
aI1700
asg12
(dp34
g5
F-0.69104234164673128
sg6
F-0.31400624081942097
sg7
F-0.052972956694211898
sg8
F-0.084886022360639635
sg9
F-0.26221255492070084
ssg14
(dp35
g5
F0.69999144608877151
sg6
F0.025948734802834439
sg7
F0.12428560847917708
sg8
F-0.50617086068227257
sg9
F-0.59184385404779061
ssa.