(lp1
(dp2
S'i'
I0
sS'coefs_errhi'
p3
(dp4
S'c3_th'
p5
F0.3068628912252821
sS'c4_th'
p6
F0.13865074711305686
sS'cy_th'
p7
F0.0082577160586000918
sS'c1_th'
p8
F0.095427684355374659
sS'c2_th'
p9
F0.12830377368876625
ssS'mass_bin'
p10
(lp11
F744
aF870
asS'coefs_errlo'
p12
(dp13
g5
F-0.30926119289288506
sg6
F-0.14234198526683517
sg7
F0
sg8
F-0.094832390225455976
sg9
F-0.12402052222819598
ssS'coefs'
p14
(dp15
g5
F-0.58733192673910373
sg6
F-0.045387084154220769
sg7
F9.1991790851508881e-09
sg8
F-0.092495360669799132
sg9
F-0.46130459091650677
ssa(dp16
S'i'
I1
sg3
(dp17
g5
F0.29124495242399145
sg6
F0.13136238667404079
sg7
F0.0054420740135926182
sg8
F0.089419483710347789
sg9
F0.12090088298381736
ssg10
(lp18
F870
aF890
asg12
(dp19
g5
F-0.29155764122639916
sg6
F-0.13450038139657239
sg7
F0
sg8
F-0.089608712943743909
sg9
F-0.11726381340680259
ssg14
(dp20
g5
F-0.43921457895538807
sg6
F0.017278355424623526
sg7
F2.4319825153718e-08
sg8
F-0.12492090468166661
sg9
F-0.50608910934976081
ssa(dp21
S'i'
I2
sg3
(dp22
g5
F0.26673847206495316
sg6
F0.12022798107052789
sg7
F0.0029960083578995916
sg8
F0.081804151526086985
sg9
F0.11152924180926178
ssg10
(lp23
F890
aF910
asg12
(dp24
g5
F-0.2686724310763936
sg6
F-0.12333053893253124
sg7
F0
sg8
F-0.081440480542016913
sg9
F-0.10804365525122289
ssg14
(dp25
g5
F-0.47889639209474355
sg6
F-0.16623969112186254
sg7
F2.4076957094720797e-10
sg8
F-0.11974741243912479
sg9
F-0.35074255494889783
ssa(dp26
S'i'
I3
sg3
(dp27
g5
F0.32073751201453088
sg6
F0.13963576676335679
sg7
F0.017498705612298184
sg8
F0.096850761969529256
sg9
F0.129295771940724
ssg10
(lp28
F910
aI940
asg12
(dp29
g5
F-0.3240822792763588
sg6
F-0.14296767224624859
sg7
F-0.013525382738774707
sg8
F-0.09627739996200016
sg9
F-0.12534510776874352
ssg14
(dp30
g5
F-1.1019999240728136
sg6
F-0.29828978166239389
sg7
F0.014903206232969812
sg8
F0.03555668545839219
sg9
F-0.25079500759424578
ssa(dp31
S'i'
I4
sg3
(dp32
g5
F0.45233068898206857
sg6
F0.2133264851702627
sg7
F0.017489608740175737
sg8
F0.14116163952813296
sg9
F0.20066507430521247
ssg10
(lp33
I940
aI970
asg12
(dp34
g5
F-0.459795518993383
sg6
F-0.22293918861778095
sg7
F0
sg8
F-0.1404947262445643
sg9
F-0.1901519252459492
ssg14
(dp35
g5
F-0.94052343295793928
sg6
F-0.13029098895742719
sg7
F2.0474005357762337e-07
sg8
F-0.0022010795902472902
sg9
F-0.37571021472853361
ssa(dp36
S'i'
I5
sg3
(dp37
g5
F0.47165587299156958
sg6
F0.20342041260041302
sg7
F0.0071335487631925864
sg8
F0.14716750342351137
sg9
F0.19187636880707987
ssg10
(lp38
I970
aI1040
asg12
(dp39
g5
F-0.48037238234133289
sg6
F-0.21320885153506788
sg7
F0
sg8
F-0.14495017453753528
sg9
F-0.18073249892332044
ssg14
(dp40
g5
F-0.071892658343960081
sg6
F0.37458631056601743
sg7
F4.8953228137804672e-09
sg8
F-0.15033163355744161
sg9
F-0.79650109703856209
ssa(dp41
S'i'
I6
sg3
(dp42
g5
F0.58731079283458765
sg6
F0.26312283271012676
sg7
F0.041436006490568278
sg8
F0.17564074906019084
sg9
F0.14562508937334778
ssg10
(lp43
I1040
aI1300
asg12
(dp44
g5
F0
sg6
F0
sg7
F-0.031565295743068572
sg8
F-0.17362107970310683
sg9
F-0.23904556541417935
ssg14
(dp45
g5
F-0.42991136999421342
sg6
F-0.58434117719440359
sg7
F0.038742191308505647
sg8
F-0.20816621271841163
sg9
F0.033875228647787026
ssa(dp46
S'i'
I7
sg3
(dp47
g5
F0
sg6
F0.38128874126885015
sg7
F0.094534009309288444
sg8
F0.29520407555941103
sg9
F0.36971556459080135
ssg10
(lp48
I1300
aI1700
asg12
(dp49
g5
F-1.0145125020401811
sg6
F-0.41240433870432908
sg7
F-0.072800973612220821
sg8
F-0.15340824568199324
sg9
F-0.33367879051478699
ssg14
(dp50
g5
F0.52595092508630037
sg6
F0.12480392051244538
sg7
F0.1194737419053532
sg8
F-0.3889449948745991
sg9
F-0.68132615263857632
ssa.