(lp1
(dp2
S'i'
I0
sS'coefs_errhi'
p3
(dp4
S'c3_th'
p5
F0.14979383208556227
sS'c4_th'
p6
F0.068334799774218163
sS'cy_th'
p7
F0.0022142718537877435
sS'c1_th'
p8
F0.046100126899087691
sS'c2_th'
p9
F0.062288790589329457
ssS'mass_bin'
p10
(lp11
I846
aI946
asS'coefs_errlo'
p12
(dp13
g5
F-0.15022358670342792
sg6
F-0.069078751038203212
sg7
F0
sg8
F-0.046001568673518942
sg9
F-0.061377852022085837
ssS'coefs'
p14
(dp15
g5
F-0.60065981847257199
sg6
F-0.10692428645941687
sg7
F4.3133311922183282e-09
sg8
F-0.085603053920256134
sg9
F-0.39864532220050597
ssa.