(lp1
(dp2
S'i'
I0
sS'coefs_errhi'
p3
(dp4
S'c4_th2'
p5
F0.30200524250689686
sS'c2_th1'
p6
F0.32649790820904484
sS'c2_th2'
p7
F0.30238131305016958
sS'c3_th2'
p8
F0.68666261747775659
sS'c1_th2'
p9
F0.21142154502920296
sS'c1_th1'
p10
F0.21540682349749596
sS'c4_th1'
p11
F0.31837226648459899
sS'c3_th1'
p12
F0.6724499848139881
sS'cy_th2'
p13
F0.045088479280564586
sS'cy_th1'
p14
F0.039506063850566965
ssS'mass_bin'
p15
(lp16
F744
aF856
asS'coefs_errlo'
p17
(dp18
g5
F-0.32139592447799686
sg6
F-0.29174820202239199
sg7
F-0.27830890659734658
sg8
F0
sg9
F-0.20834675360027877
sg10
F-0.20861318603217902
sg11
F-0.34880550172646629
sg12
F-0.71955279863946398
sg13
F-0.025682170181514988
sg14
F0
ssS'coefs'
p19
(dp20
g5
F0.17458171865491412
sg6
F-0.42746862857862467
sg7
F-0.64966290202791299
sg8
F-0.79618870038612632
sg9
F-0.074521088899988597
sg10
F-0.11936406889164258
sg11
F-0.10211038416318263
sg12
F-0.76965845831370261
sg13
F0.037261467984636587
sg14
F1.9865782774353136e-07
ssa(dp21
S'i'
I1
sg3
(dp22
g5
F0.1230388710294258
sg6
F0.12429808980810361
sg7
F0.12128768919556566
sg8
F0.25952893847433356
sg9
F0.083555525366012962
sg10
F0.082444935706381034
sg11
F0.12920673972478816
sg12
F0.26554163749641724
sg13
F0.014397666826669363
sg14
F0.0078704287801416341
ssg15
(lp23
F856
aF936
asg17
(dp24
g5
F-0.12832087865860187
sg6
F-0.12095972809165662
sg7
F0
sg8
F-0.28233510577118437
sg9
F-0.079444471521709734
sg10
F-0.080956718635445526
sg11
F-0.1319008796913031
sg12
F-0.2705306964286962
sg13
F0
sg14
F0
ssg19
(dp25
g5
F-0.031731373102805494
sg6
F-0.35421406813284051
sg7
F-0.47694995184066635
sg8
F-0.45993756294754129
sg9
F-0.14025082859670268
sg10
F-0.11411888155485406
sg11
F-0.15338185058190956
sg12
F-0.76650239268287257
sg13
F6.4443924082113746e-06
sg14
F1.0084685198030741e-08
ssa(dp26
S'i'
I2
sg3
(dp27
g5
F0.17050873908032479
sg6
F0.21992064151208071
sg7
F0.063817643165393248
sg8
F0.50904056546093879
sg9
F0.11737187660017345
sg10
F0.14526164883159942
sg11
F0.22157638743326177
sg12
F0.28343961964380393
sg13
F0.014313219849375121
sg14
F0.021711694894952734
ssg15
(lp28
F936
aF1050
asg17
(dp29
g5
F0
sg6
F-0.20604027287998505
sg7
F-0.16473045315323898
sg8
F0
sg9
F-0.16917870663440143
sg10
F0
sg11
F-0.23315690234941291
sg12
F-0.46838608071156446
sg13
F0
sg14
F0
ssg19
(dp30
g5
F-0.49999605058380792
sg6
F-0.73836202809554008
sg7
F-0.0089248636234890988
sg8
F-1.29143558729033
sg9
F0.064296391621338489
sg10
F-0.46627510730984295
sg11
F0.15531732959195277
sg12
F0.38333689002529425
sg13
F2.6930824237325623e-10
sg14
F3.195235187547496e-09
ssa(dp31
S'i'
I3
sg3
(dp32
g5
F0.48400137904816137
sg6
F0.45298984065964565
sg7
F0.48510095059576597
sg8
F0.87573946943585146
sg9
F0.30972385229882127
sg10
F0.32002291943109668
sg11
F0.42152792572607684
sg12
F1.0633514439790202
sg13
F0.055257642470462449
sg14
F0.088006090350021909
ssg15
(lp33
F1050
aI1200
asg17
(dp34
g5
F0
sg6
F-0.38728979790126944
sg7
F-0.45176962888837896
sg8
F-1.0448881865830726
sg9
F0
sg10
F0
sg11
F-0.47785127461160115
sg12
F0
sg13
F0
sg14
F-0.061050701736851301
ssg19
(dp35
g5
F-0.052621642030246218
sg6
F-0.8240918387729379
sg7
F-0.4801535856922472
sg8
F-0.26834598694261502
sg9
F-0.32122394403479354
sg10
F-0.20382689763042894
sg11
F0.27082860966392119
sg12
F-0.55878993141446209
sg13
F3.959225447491832e-09
sg14
F0.073002722249995544
ssa(dp36
S'i'
I4
sg3
(dp37
g5
F0.48597217806406556
sg6
F0.13688937494831344
sg7
F0.19440600140285924
sg8
F1.7325375476448741
sg9
F0
sg10
F0.29837081204712623
sg11
F0.29637557126707997
sg12
F1.1690449369982403
sg13
F0.27118397928655658
sg14
F0.059120921066542834
ssg15
(lp38
I1200
aI1350
asg17
(dp39
g5
F0
sg6
F-0.26985860284558322
sg7
F-0.4407762091399216
sg8
F-1.7325375476448741
sg9
F-0.53098171044983222
sg10
F0
sg11
F0
sg12
F0
sg13
F0
sg14
F0
ssg19
(dp40
g5
F-0.49998526672440696
sg6
F-0.30041605518148229
sg7
F-0.034057283047621345
sg8
F-0.48746164325225694
sg9
F0.10478563243118955
sg10
F-0.17090770059793858
sg11
F-0.49999995650805085
sg12
F-0.94578005388541919
sg13
F0.052511536586431928
sg14
F1.9660502259544188e-07
ssa(dp41
S'i'
I5
sg3
(dp42
g5
F0.29547195654157299
sg6
F0.50623665921607064
sg7
F0.52219550723014529
sg8
F0
sg9
F0.3910715738274182
sg10
F0.54123473707389669
sg11
F0
sg12
F1.9797586761137167
sg13
F0.74976684312496289
sg14
F0.043321747652274784
ssg15
(lp43
I1350
aI1500
asg17
(dp44
g5
F0
sg6
F-0.50623665921607064
sg7
F-0.38050739233089692
sg8
F-1.1359272834858252
sg9
F0
sg10
F0
sg11
F-0.76323824208621949
sg12
F-1.9797586761137167
sg13
F-0.74976684312496289
sg14
F0
ssg19
(dp45
g5
F-0.49999920836520978
sg6
F-1.6172334328962208
sg7
F0.21015583960295547
sg8
F0.99998830948471618
sg9
F-0.46601637419478104
sg10
F-0.28427829600549959
sg11
F0.95962720086558329
sg12
F-0.033157829717349374
sg13
F0.52307389954080041
sg14
F1.0146328222049306e-12
ssa(dp46
S'i'
I6
sg3
(dp47
g5
F0.87557296174663146
sg6
F0.28259779591269296
sg7
F0.42038619526587107
sg8
F1.5759364313284006
sg9
F0.7187088037724092
sg10
F0.88335732645942766
sg11
F1.1426144148825863
sg12
F1.3470373839650636
sg13
F0
sg14
F0.10896291917185048
ssg15
(lp48
I1500
aI1700
asg17
(dp49
g5
F0
sg6
F0
sg7
F-0.77345819638931312
sg8
F-1.5759364313284006
sg9
F0
sg10
F-0.88335732645942766
sg11
F-1.1426144148825863
sg12
F-1.3470373839650636
sg13
F-0.40819025278857779
sg14
F0
ssg19
(dp50
g5
F-0.49999949789228809
sg6
F-0.30835368433224719
sg7
F-0.0031267772164094154
sg8
F-0.067664985584398707
sg9
F-0.47571336071797116
sg10
F0.3398490406989001
sg11
F-0.49999981314240727
sg12
F-1.4999937140131336
sg13
F0.54349967154492507
sg14
F4.975242440252714e-12
ssa.