(lp1
(dp2
S'i'
I0
sS'coefs_errhi'
p3
(dp4
S'c3_th'
p5
F0.59161531184893068
sS'c4_th'
p6
F0.27835365250074012
sS'cy_th'
p7
F0.025551509350368415
sS'c1_th'
p8
F0.18032211858057523
sS'c2_th'
p9
F0.27520591453106946
ssS'mass_bin'
p10
(lp11
F744
aF856
asS'coefs_errlo'
p12
(dp13
g5
F-0.58872774307517628
sg6
F-0.29666833721629182
sg7
F0
sg8
F-0.18376773993491122
sg9
F-0.25396699723092886
ssS'coefs'
p14
(dp15
g5
F-0.83090078936539324
sg6
F-0.30761229588259353
sg7
F1.9771859149919635e-09
sg8
F-0.024317343928879187
sg9
F-0.2373943676669128
ssa(dp16
S'i'
I1
sg3
(dp17
g5
F0.2208797414127206
sg6
F0.10349668260439196
sg7
F0.0038853238856349603
sg8
F0.068275590129248165
sg9
F0.098289595061394799
ssg10
(lp18
F856
aF936
asg12
(dp19
g5
F-0.2226065257943908
sg6
F-0.10594023411035092
sg7
F0
sg8
F-0.067946142546320948
sg9
F-0.095422698531832426
ssg14
(dp20
g5
F-0.60872015469662188
sg6
F-0.14989533235005359
sg7
F1.6557422100049735e-11
sg8
F-0.11296936683890924
sg9
F-0.37496104037533673
ssa(dp21
S'i'
I2
sg3
(dp22
g5
F0.44053973636594129
sg6
F0.20550315620563334
sg7
F0.024136851813146773
sg8
F0.1404235126623179
sg9
F0.19744212924842469
ssg10
(lp23
F936
aF1050
asg12
(dp24
g5
F-0.46857999953086388
sg6
F-0.21286887999941137
sg7
F0
sg8
F-0.13508960492047617
sg9
F-0.18792961594810809
ssg14
(dp25
g5
F-0.024289616021225591
sg6
F0.16310169003881914
sg7
F0.00010165155841318496
sg8
F-0.17014848060538701
sg9
F-0.57474040024042139
ssa(dp26
S'i'
I3
sg3
(dp27
g5
F0.9481080145017553
sg6
F0.48392674656193896
sg7
F0.067832873748499375
sg8
F0.29527870151819918
sg9
F0.27447857922582614
ssg10
(lp28
F1050
aI1200
asg12
(dp29
g5
F0
sg6
F0
sg7
F0
sg8
F-0.28306444744120668
sg9
F-0.45596463379822716
ssg14
(dp30
g5
F-1.0387253831392651
sg6
F-0.80550198510679949
sg7
F1.134434946564733e-05
sg8
F0.0088177537807789808
sg9
F0.27940185747152069
ssa(dp31
S'i'
I4
sg3
(dp32
g5
F0
sg6
F0.4978457756940261
sg7
F0.13129199833915978
sg8
F0.17221848230670425
sg9
F0.54410326433532796
ssg10
(lp33
I1200
aI1350
asg12
(dp34
g5
F-0.46106214340026286
sg6
F-0.57575620955740936
sg7
F-0.093673542497667739
sg8
F-0.15540713834717446
sg9
F-0.45512906015750948
ssg14
(dp35
g5
F0.99999990231658753
sg6
F-0.03119399368880571
sg7
F0.13432012297408324
sg8
F-0.64941616969567995
sg9
F-0.68370592423535004
ssa(dp36
S'i'
I5
sg3
(dp37
g5
F1.8497739229184309
sg6
F0.93180028154349603
sg7
F0.38366868024436229
sg8
F0.96708159307758679
sg9
F0.67974598302760669
ssg10
(lp38
I1350
aI1500
asg12
(dp39
g5
F-1.8497739229184309
sg6
F0
sg7
F-0.18976028534438311
sg8
F-0.24036723413947808
sg9
F-0.83887249315593326
ssg14
(dp40
g5
F0.99995459681163146
sg6
F-0.42551316666213856
sg7
F0.20497021290337047
sg8
F-0.63764695133910765
sg9
F-0.3147549585147269
ssa(dp41
S'i'
I6
sg3
(dp42
g5
F2.3422160585519243
sg6
F1.5422980099438395
sg7
F0.32381838533901341
sg8
F0
sg9
F0.6790235809834233
ssg10
(lp43
I1500
aI1700
asg12
(dp44
g5
F-2.3422160585519243
sg6
F-1.5422980099438395
sg7
F-0.24560351597756719
sg8
F-0.67269500944247729
sg9
F0
ssg14
(dp45
g5
F-1.9954908545976626
sg6
F0.99998278218485992
sg7
F0.56906371242565723
sg8
F0.82940298640882437
sg9
F-1.4256366101992191
ssa.