(lp1
(dp2
S'i'
I0
sS'coefs_errhi'
p3
(dp4
S'c3_th'
p5
F0.57308085488072413
sS'c4_th'
p6
F0.28088790861846058
sS'cy_th'
p7
F0.025563682239292864
sS'c1_th'
p8
F0.18762553458006759
sS'c2_th'
p9
F0.27283382595825861
ssS'mass_bin'
p10
(lp11
F744
aF856
asS'coefs_errlo'
p12
(dp13
g5
F-0.60758688232561586
sg6
F-0.29429247305792106
sg7
F0
sg8
F-0.17658302839260434
sg9
F-0.25644540832323204
ssS'coefs'
p14
(dp15
g5
F-0.81218709321397387
sg6
F-0.31007209752278853
sg7
F3.254822989462447e-07
sg8
F-0.03155497987844369
sg9
F-0.23496031387960015
ssa(dp16
S'i'
I1
sg3
(dp17
g5
F0.22087334220143312
sg6
F0.10347889219260349
sg7
F0.0038853253649791977
sg8
F0.068259482725114937
sg9
F0.098279333330586097
ssg10
(lp18
F856
aF936
asg12
(dp19
g5
F-0.22261135279527011
sg6
F-0.10595482448639514
sg7
F0
sg8
F-0.067962067086068306
sg9
F-0.095429080090303223
ssg14
(dp20
g5
F-0.6087069665992122
sg6
F-0.14986015844029543
sg7
F2.5927560098892855e-10
sg8
F-0.11295407308444183
sg9
F-0.37497568859412089
ssa(dp21
S'i'
I2
sg3
(dp22
g5
F0.52375435721612928
sg6
F0.23447815612625345
sg7
F0.029145959873398707
sg8
F0.15974596382719458
sg9
F0.2297647097730901
ssg10
(lp23
F936
aF1000
asg12
(dp24
g5
F-0.53590151085255278
sg6
F-0.24763141172644604
sg7
F0
sg8
F-0.15748203400849042
sg9
F-0.21436156939409456
ssg14
(dp25
g5
F-0.35353151137830374
sg6
F0.090622135406238868
sg7
F0.007077614301323476
sg8
F-0.10493374031956471
sg9
F-0.51829177746588995
ssa(dp26
S'i'
I3
sg3
(dp27
g5
F0.66272370684552762
sg6
F0.31462453137441349
sg7
F0.027466845876707682
sg8
F0.20277310597461995
sg9
F0.32357661414075983
ssg10
(lp28
F1000
aI1200
asg12
(dp29
g5
F-0.67392459185022424
sg6
F-0.3418999778476412
sg7
F0
sg8
F-0.20147311373153198
sg9
F-0.29278224249875706
ssg14
(dp30
g5
F-0.075523968953811638
sg6
F-0.18207267348290446
sg7
F2.0806634165593252e-07
sg8
F-0.16411841993169463
sg9
F-0.26207613573914079
ssa(dp31
S'i'
I4
sg3
(dp32
g5
F0
sg6
F0.38059765270886198
sg7
F0.10860124731492921
sg8
F0.23329351924287833
sg9
F0.40111896883174625
ssg10
(lp33
I1200
aI1700
asg12
(dp34
g5
F-0.77213280928762718
sg6
F-0.42836566538271081
sg7
F-0.09147280304690851
sg8
F-0.10783976402805868
sg9
F-0.34833689552785463
ssg14
(dp35
g5
F0.69990781412091696
sg6
F0.138824483279962
sg7
F0.24615395564814657
sg8
F-0.44505857354899248
sg9
F-0.78831867918316012
ssa.