(lp1
(dp2
S'mass_err'
p3
F28
sS'i'
I0
sS'mass_bin'
p4
(lp5
F744
aF856
asS'mass_mean'
p6
F800
sS'Ndwave_err'
p7
F3.4431858405397873
sS'params'
p8
(dp9
S'Adpa2_Bs_errhi'
p10
F0.10301743438765883
sS'dpe_Bs'
p11
F0
sS'y_th1_Bs'
p12
F1.9865782774353136e-07
sS'fpax_Bs'
p13
F0.23153497616301999
sS'Adpa2_Bs'
p14
F0.043302803779486032
sS'dd0_Bs'
p15
F-1.4334407546762966
sS'Adpa2_Bs_errlo'
p16
F-0.042852463382973945
sS'c3_th1_Bs'
p17
F-0.76965845831370261
sS'dd0_Bs_errsim'
p18
F0.95190512542015382
sS'fpax_Bs_errsim'
p19
F0.18673640957770157
sS'ddpa_Bs_errhi'
p20
F2.0459048894178329
sS'y_th2_Bs'
p21
F0.037261467984636587
sS'dpa_Bs_errhi'
p22
F0.68142236937678402
sS'Adpe2_Bs'
p23
F0.0054669700563431123
sS'c1_th1_Bs'
p24
F-0.11936406889164258
sS'c2_th2_Bs'
p25
F-0.64966290202791299
sS'c3_th2_Bs'
p26
F-0.79618870038612632
sS'fpa_Bs_errsim'
p27
F0.11206862676094252
sS'fpax_Bs_errhi'
p28
F0.20628459005450278
sS'Ad02_Bs_errlo'
p29
F0
sS'fpa_Bs_errlo'
p30
F-0.11206862676094252
sS'dpa_Bs'
p31
F-1.3489131239682512
sS'Ad02_Bs_errhi'
p32
F0.12463263638373885
sS'c1_th2_Bs'
p33
F-0.074521088899988597
sS'c4_th1_Bs'
p34
F-0.10211038416318263
sS'Ap2_Bs'
p35
F0.83168991772904355
sS'ds_Bs'
p36
F0.71350252002036285
sS'dd0_Bs_errlo'
p37
F-0.95190512542015382
sS'fpax_Bs_errlo'
p38
F-0.17031872637121118
sS'fL_Bs_errlo'
p39
F-0.20592215804235042
sS'fL_Bs_errhi'
p40
F0.16186377205078925
sS'ds_Bs_errlo'
p41
F0
sS'Ad02_Bs_errsim'
p42
F0.091055816952366309
sS'c2_th1_Bs'
p43
F-0.42746862857862467
sS'fpa_Bs_errhi'
p44
F0.11206862676094252
sS'Adpe2_Bs_errsim'
p45
F0.030423612644982972
sS'ddpe_Bs_errlo'
p46
F-4.6324302352042475
sS'ddpa_Bs'
p47
F-1.7319894710595414
sS'dpa_Bs_errsim'
p48
F0.72705654988734603
sS'ddpe_Bs_errhi'
p49
F4.6324302352042475
sS'Ad02_Bs'
p50
F0.038881942416884863
sS'ddpe_Bs'
p51
F2.26965180177036
sS'Ap2_Bs_errlo'
p52
F-0.13321621504559225
sS'fpa_Bs'
p53
F0.13098530803091082
sS'Adpa2_Bs_errsim'
p54
F0.075038012481670635
sS'c4_th2_Bs'
p55
F0.17458171865491412
sS'ddpa_Bs_errlo'
p56
F-0.80362211039400344
sS'Ap2_Bs_errhi'
p57
F0.08988759712222831
sS'ddpe_Bs_errsim'
p58
F4.6324302352042475
sS'dpa_Bs_errlo'
p59
F-1.0669046649404523
sS'Adpe2_Bs_errlo'
p60
F0
sS'ddpa_Bs_errsim'
p61
F0.82441940362140387
sS'fL_Bs'
p62
F0.43427420685380069
sS'dd0_Bs_errhi'
p63
F0.95190512542015382
sS'ds_Bs_errsim'
p64
F0.94677162452449881
sS'fL_Bs_errsim'
p65
F0.17689941668488957
sS'Ap2_Bs_errsim'
p66
F0.10286467087782974
sS'ds_Bs_errhi'
p67
F0.75107488159509805
sS'Adpe2_Bs_errhi'
p68
F0.059903597416663533
ssS'Npwave_err'
p69
F5.2596046907221581
sS'Nswave'
p70
F2.2584342485107882
sS'Npwave'
p71
F23.287317696413218
sS'Nswave_err'
p72
F2.933289865676882
sS'Ndwave'
p73
F2.4542480550759924
sa(dp74
g3
F20
sS'i'
I1
sg4
(lp75
F856
aF936
asg6
F896
sg7
F17.889477340751856
sg8
(dp76
S'Adpa2_Bs_errhi'
p77
F0.020276098440392739
sS'dpe_Bs'
p78
F0
sS'y_th1_Bs'
p79
F1.0084685198030741e-08
sS'fpax_Bs'
p80
F0.30907291636500012
sS'Adpa2_Bs'
p81
F0.0036047529874483342
sS'dd0_Bs'
p82
F-1.2075824692819452
sS'Adpa2_Bs_errlo'
p83
F0
sS'c3_th1_Bs'
p84
F-0.76650239268287257
sS'dd0_Bs_errsim'
p85
F0.22482017475322058
sS'fpax_Bs_errsim'
p86
F0.074892999044368247
sS'ddpa_Bs_errhi'
p87
F0.88317221759082276
sS'y_th2_Bs'
p88
F6.4443924082113746e-06
sS'dpa_Bs_errhi'
p89
F0.30552177028196054
sS'Adpe2_Bs'
p90
F0.065047040880410023
sS'c1_th1_Bs'
p91
F-0.11411888155485406
sS'c2_th2_Bs'
p92
F-0.47694995184066635
sS'c3_th2_Bs'
p93
F-0.45993756294754129
sg27
F0.052981608006011725
sS'fpax_Bs_errhi'
p94
F0.076150691010964097
sS'Ad02_Bs_errlo'
p95
F-0.087853255646627326
sg30
F-0.052981608006011725
sS'dpa_Bs'
p96
F-1.7832840143246838
sS'Ad02_Bs_errhi'
p97
F0.089011511910537161
sS'c1_th2_Bs'
p98
F-0.14025082859670268
sS'c4_th1_Bs'
p99
F-0.15338185058190956
sS'Ap2_Bs'
p100
F0.75643726693057234
sS'ds_Bs'
p101
F2.3460802877345661
sS'dd0_Bs_errlo'
p102
F-0.24699066273025
sS'fpax_Bs_errlo'
p103
F-0.074673014903120408
sS'fL_Bs_errlo'
p104
F-0.074183882562112891
sS'fL_Bs_errhi'
p105
F0.070821686913513496
sS'ds_Bs_errlo'
p106
F-0.50030568110054108
sS'Ad02_Bs_errsim'
p107
F0.091209498429791674
sS'c2_th1_Bs'
p108
F-0.35421406813284051
sg44
F0.052981608006011725
sS'Adpe2_Bs_errsim'
p109
F0.037243603007280857
sS'ddpe_Bs_errlo'
p110
F-0.46289622124833435
sS'ddpa_Bs'
p111
F2.6184334590955682
sS'dpa_Bs_errsim'
p112
F0.30875240134444448
sS'ddpe_Bs_errhi'
p113
F0.43150507944820632
sS'Ad02_Bs'
p114
F0.13766841416430958
sS'ddpe_Bs'
p115
F2.1294111839374255
sS'Ap2_Bs_errlo'
p116
F-0.096336837328011862
sg53
F0.19847232481692956
sS'Adpa2_Bs_errsim'
p117
F0.012465321172969945
sS'c4_th2_Bs'
p118
F-0.031731373102805494
sS'ddpa_Bs_errlo'
p119
F-0.88317221759082276
sS'Ap2_Bs_errhi'
p120
F0.08004989837991687
sS'ddpe_Bs_errsim'
p121
F0.4456338741631809
sS'dpa_Bs_errlo'
p122
F-0.31384818551028004
sS'Adpe2_Bs_errlo'
p123
F-0.032298010402566621
sS'ddpa_Bs_errsim'
p124
F0.88317221759082276
sS'fL_Bs'
p125
F0.35784627410528791
sS'dd0_Bs_errhi'
p126
F0.22093167882051365
sS'ds_Bs_errsim'
p127
F0.59633811021781113
sS'fL_Bs_errsim'
p128
F0.071940028921227528
sS'Ap2_Bs_errsim'
p129
F0.091573031606208832
sS'ds_Bs_errhi'
p130
F0.70500751697963526
sS'Adpe2_Bs_errhi'
p131
F0.041537701188701259
ssg69
F19.171361822029152
sg70
F6.6291694566322308
sg71
F134.64583351364189
sg72
F28.871806526402288
sg73
F36.724997029725891
sa(dp132
g3
F28.5
sS'i'
I2
sg4
(lp133
F936
aF1050
asg6
F993
sg7
F3.3707817574603576
sg8
(dp134
S'Adpa2_Bs_errhi'
p135
F0.031947617975419076
sS'dpe_Bs'
p136
F0
sS'y_th1_Bs'
p137
F3.195235187547496e-09
sS'fpax_Bs'
p138
F0.3008240291577311
sS'Adpa2_Bs'
p139
F0.0035668654526285204
sS'dd0_Bs'
p140
F-5.4232174306889647e-11
sS'Adpa2_Bs_errlo'
p141
F0
sS'c3_th1_Bs'
p142
F0.38333689002529425
sS'dd0_Bs_errsim'
p143
F6.278445616418928
sS'fpax_Bs_errsim'
p144
F0.13821360706200497
sS'ddpa_Bs_errhi'
p145
F1.6454713408164721
sS'y_th2_Bs'
p146
F2.6930824237325623e-10
sS'dpa_Bs_errhi'
p147
F0
sS'Adpe2_Bs'
p148
F0.027816928014127995
sS'c1_th1_Bs'
p149
F-0.46627510730984295
sS'c2_th2_Bs'
p150
F-0.0089248636234890988
sS'c3_th2_Bs'
p151
F-1.29143558729033
sg27
F0.088629660546834216
sS'fpax_Bs_errhi'
p152
F0.14761431357508981
sS'Ad02_Bs_errlo'
p153
F0
sg30
F-0.088629660546834216
sS'dpa_Bs'
p154
F-1.7346742982244852
sS'Ad02_Bs_errhi'
p155
F0.027862832244449989
sS'c1_th2_Bs'
p156
F0.064296391621338489
sS'c4_th1_Bs'
p157
F0.15531732959195277
sS'Ap2_Bs'
p158
F0.4760975331184677
sS'ds_Bs'
p159
F2.2971368181107374
sS'dd0_Bs_errlo'
p160
F-6.278445616418928
sS'fpax_Bs_errlo'
p161
F-0.12995176620686724
sS'fL_Bs_errlo'
p162
F-0.17282698751958464
sS'fL_Bs_errhi'
p163
F0.17499365328873001
sS'ds_Bs_errlo'
p164
F-0.2594651528724074
sS'Ad02_Bs_errsim'
p165
F0.011574473048974604
sS'c2_th1_Bs'
p166
F-0.73836202809554008
sg44
F0.088629660546834216
sS'Adpe2_Bs_errsim'
p167
F0.026954190112757986
sS'ddpe_Bs_errlo'
p168
F-5.1926122048320797
sS'ddpa_Bs'
p169
F-0.47864777849684659
sS'dpa_Bs_errsim'
p170
F0.5478752055642564
sS'ddpe_Bs_errhi'
p171
F5.1926122048320797
sS'Ad02_Bs'
p172
F3.1064609725128811e-06
sS'ddpe_Bs'
p173
F-3.140335002049508
sS'Ap2_Bs_errlo'
p174
F-0.13854128681552325
sg53
F0.17318093880806879
sS'Adpa2_Bs_errsim'
p175
F0.013436040640300323
sS'c4_th2_Bs'
p176
F-0.49999605058380792
sS'ddpa_Bs_errlo'
p177
F-1.6454713408164721
sS'Ap2_Bs_errhi'
p178
F0.18187093700095205
sS'ddpe_Bs_errsim'
p179
F5.1926122048320797
sS'dpa_Bs_errlo'
p180
F-0.48390830466940848
sS'Adpe2_Bs_errlo'
p181
F-0.02070286235712275
sS'ddpa_Bs_errsim'
p182
F1.6454713408164721
sS'fL_Bs'
p183
F0.42431148438190491
sS'dd0_Bs_errhi'
p184
F6.278445616418928
sS'ds_Bs_errsim'
p185
F0.28260117798094386
sS'fL_Bs_errsim'
p186
F0.1667272538488288
sS'Ap2_Bs_errsim'
p187
F0.14349760175349133
sS'ds_Bs_errhi'
p188
F0.48308926089070681
sS'Adpe2_Bs_errhi'
p189
F0.033568371732514077
ssg69
F15.693689591453563
sg70
F51.221618963195532
sg71
F49.514143444320638
sg72
F15.005790066364472
sg73
F3.264237592483819
sa(dp190
g3
F37.5
sS'i'
I3
sg4
(lp191
F1050
aI1200
asg6
F1125
sg7
F6.6499099925263874
sg8
(dp192
S'Adpa2_Bs_errhi'
p193
F0.050150259330588989
sS'dpe_Bs'
p194
F0
sS'y_th1_Bs'
p195
F0.073002722249995544
sS'fpax_Bs'
p196
F0.63930822013876554
sS'Adpa2_Bs'
p197
F0.018898030672693744
sS'dd0_Bs'
p198
F-0.5315887451953305
sS'Adpa2_Bs_errlo'
p199
F-0.018889894558827513
sS'c3_th1_Bs'
p200
F-0.55878993141446209
sS'dd0_Bs_errsim'
p201
F0.80651134740142361
sS'fpax_Bs_errsim'
p202
F0.35446985171277023
sS'ddpa_Bs_errhi'
p203
F0
sS'y_th2_Bs'
p204
F3.959225447491832e-09
sS'dpa_Bs_errhi'
p205
F0.73459258899608393
sS'Adpe2_Bs'
p206
F0.11354334404307193
sS'c1_th1_Bs'
p207
F-0.20382689763042894
sS'c2_th2_Bs'
p208
F-0.4801535856922472
sS'c3_th2_Bs'
p209
F-0.26834598694261502
sg27
F0.30214823713330213
sS'fpax_Bs_errhi'
p210
F0
sS'Ad02_Bs_errlo'
p211
F-0.039552048409813793
sg30
F-0.30214823713330213
sS'dpa_Bs'
p212
F-1.6536749940767272
sS'Ad02_Bs_errhi'
p213
F0.091295030064059798
sS'c1_th2_Bs'
p214
F-0.32122394403479354
sS'c4_th1_Bs'
p215
F0.27082860966392119
sS'Ap2_Bs'
p216
F0.17724657707681429
sS'ds_Bs'
p217
F3.9907454120726036
sS'dd0_Bs_errlo'
p218
F-2.0578702001465796
sS'fpax_Bs_errlo'
p219
F-0.32528564474600841
sS'fL_Bs_errlo'
p220
F-0.23851156288566217
sS'fL_Bs_errhi'
p221
F0.35136053010805601
sS'ds_Bs_errlo'
p222
F-1.7824006140029411
sS'Ad02_Bs_errsim'
p223
F0.068930491681976763
sS'c2_th1_Bs'
p224
F-0.8240918387729379
sg44
F0.30214823713330213
sS'Adpe2_Bs_errsim'
p225
F0.084455637081219559
sS'ddpe_Bs_errlo'
p226
F-1.7154534216009136
sS'ddpa_Bs'
p227
F2.3491487861075591
sS'dpa_Bs_errsim'
p228
F0.87294323604489366
sS'ddpe_Bs_errhi'
p229
F0.6285924386562769
sS'Ad02_Bs'
p230
F0.039565566277969921
sS'ddpe_Bs'
p231
F1.0232338868074509
sS'Ap2_Bs_errlo'
p232
F-0.10284438726457781
sg53
F0.48187123584199038
sS'Adpa2_Bs_errsim'
p233
F0.034749329625671593
sS'c4_th2_Bs'
p234
F-0.052621642030246218
sS'ddpa_Bs_errlo'
p235
F-1.8051339830093207
sS'Ap2_Bs_errhi'
p236
F0.24396733665409109
sS'ddpe_Bs_errsim'
p237
F0.78937370098915616
sS'dpa_Bs_errlo'
p238
F-1.6128158800435317
sS'Adpe2_Bs_errlo'
p239
F-0.087793662475338333
sS'ddpa_Bs_errsim'
p240
F0.88045817289715034
sS'fL_Bs'
p241
F0.24626147347613098
sS'dd0_Bs_errhi'
p242
F0
sS'ds_Bs_errsim'
p243
F0.8052057326571922
sS'fL_Bs_errsim'
p244
F0.33102457195039525
sS'Ap2_Bs_errsim'
p245
F0.13539238713748109
sS'ds_Bs_errhi'
p246
F0.57003370959350241
sS'Adpe2_Bs_errhi'
p247
F0.089290184552521273
ssg69
F7.8325264702667141
sg70
F37.09254946997865
sg71
F10.103054893378415
sg72
F9.2867830409843677
sg73
F9.8043956366429281
sa(dp248
g3
F37.5
sS'i'
I4
sg4
(lp249
I1200
aI1350
asg6
F1275
sg7
F3.5134339397148344
sg8
(dp250
S'Adpa2_Bs_errhi'
p251
F0.033084315786579242
sS'dpe_Bs'
p252
F0
sS'y_th1_Bs'
p253
F1.9660502259544188e-07
sS'fpax_Bs'
p254
F0.087732891279454328
sS'Adpa2_Bs'
p255
F0.043700067636062434
sS'dd0_Bs'
p256
F-1.0423670413393351
sS'Adpa2_Bs_errlo'
p257
F-0.024472664148607083
sS'c3_th1_Bs'
p258
F-0.94578005388541919
sS'dd0_Bs_errsim'
p259
F3.6424623363242152
sS'fpax_Bs_errsim'
p260
F0.13229664247515516
sS'ddpa_Bs_errhi'
p261
F0.40322241365593736
sS'y_th2_Bs'
p262
F0.052511536586431928
sS'dpa_Bs_errhi'
p263
F1.5292329023016134
sS'Adpe2_Bs'
p264
F0.012258951655663708
sS'c1_th1_Bs'
p265
F-0.17090770059793858
sS'c2_th2_Bs'
p266
F-0.034057283047621345
sS'c3_th2_Bs'
p267
F-0.48746164325225694
sg27
F0.032442486886379449
sS'fpax_Bs_errhi'
p268
F0.21739653644664753
sS'Ad02_Bs_errlo'
p269
F-2.27674667444e-06
sg30
F-0.032442486886379449
sS'dpa_Bs'
p270
F-2.6308263363257058
sS'Ad02_Bs_errhi'
p271
F2.27674667444e-06
sS'c1_th2_Bs'
p272
F0.10478563243118955
sS'c4_th1_Bs'
p273
F-0.49999995650805085
sS'Ap2_Bs'
p274
F0.37062455558011709
sS'ds_Bs'
p275
F1.5752349444945115
sS'dd0_Bs_errlo'
p276
F-3.6424623363242152
sS'fpax_Bs_errlo'
p277
F-0.086111277214401219
sS'fL_Bs_errlo'
p278
F-0.15992080825220584
sS'fL_Bs_errhi'
p279
F0.10659393711118803
sS'ds_Bs_errlo'
p280
F-0.1513706425599757
sS'Ad02_Bs_errsim'
p281
F2.27674667444e-06
sS'c2_th1_Bs'
p282
F-0.30041605518148229
sg44
F0.032442486886379449
sS'Adpe2_Bs_errsim'
p283
F0.014434691492406948
sS'ddpe_Bs_errlo'
p284
F-0.84782871206726895
sS'ddpa_Bs'
p285
F0.98795169222501222
sS'dpa_Bs_errsim'
p286
F0.76286176505900283
sS'ddpe_Bs_errhi'
p287
F0.79496274998943661
sS'Ad02_Bs'
p288
F1.4788170688007085e-13
sS'ddpe_Bs'
p289
F0.62751345379544166
sS'Ap2_Bs_errlo'
p290
F-0.12839631216007005
sg53
F0.02432716711257871
sS'Adpa2_Bs_errsim'
p291
F0.028317825900977839
sS'c4_th2_Bs'
p292
F-0.49998526672440696
sS'ddpa_Bs_errlo'
p293
F-0.39318197804757438
sS'Ap2_Bs_errhi'
p294
F0.15388544078358868
sS'ddpe_Bs_errsim'
p295
F0.79169062280450642
sS'dpa_Bs_errlo'
p296
F-0.6741543650755939
sS'Adpe2_Bs_errlo'
p297
F-0.010375511875245769
sS'ddpa_Bs_errsim'
p298
F0.38809470673001401
sS'fL_Bs'
p299
F0.72271326343173015
sS'dd0_Bs_errhi'
p300
F3.6424623363242152
sS'ds_Bs_errsim'
p301
F0.15632837469032312
sS'fL_Bs_errsim'
p302
F0.11476462777604329
sS'Ap2_Bs_errsim'
p303
F0.12062614769029004
sS'ds_Bs_errhi'
p304
F0.16870275037588914
sS'Adpe2_Bs_errhi'
p305
F0.018724636002300267
ssg69
F13.705801684563994
sg70
F62.502390338952978
sg71
F40.398076558232759
sg72
F14.042845416571831
sg73
F6.0995331028142683
sa(dp306
g3
F37.5
sS'i'
I5
sg4
(lp307
I1350
aI1500
asg6
F1425
sg7
F12.670567342529232
sg8
(dp308
S'Adpa2_Bs_errhi'
p309
F0.036227539974247186
sS'dpe_Bs'
p310
F0
sS'y_th1_Bs'
p311
F1.0146328222049306e-12
sS'fpax_Bs'
p312
F0.12631605261095102
sS'Adpa2_Bs'
p313
F0.035310204813362389
sS'dd0_Bs'
p314
F-6.5741320565138039e-07
sS'Adpa2_Bs_errlo'
p315
F-0.023218470373024675
sS'c3_th1_Bs'
p316
F-0.033157829717349374
sS'dd0_Bs_errsim'
p317
F0.1467625650005937
sS'fpax_Bs_errsim'
p318
F0.13082669031674005
sS'ddpa_Bs_errhi'
p319
F0.6001948858837356
sS'y_th2_Bs'
p320
F0.52307389954080041
sS'dpa_Bs_errhi'
p321
F0.60682285571409866
sS'Adpe2_Bs'
p322
F0.018246526255826123
sS'c1_th1_Bs'
p323
F-0.28427829600549959
sS'c2_th2_Bs'
p324
F0.21015583960295547
sS'c3_th2_Bs'
p325
F0.99998830948471618
sg27
F0.082767406822297621
sS'fpax_Bs_errhi'
p326
F0.15645278622833175
sS'Ad02_Bs_errlo'
p327
F-0.12253213024684632
sg30
F-0.082767406822297621
sS'dpa_Bs'
p328
F-2.3355234085268748
sS'Ad02_Bs_errhi'
p329
F0.1060733356415814
sS'c1_th2_Bs'
p330
F-0.46601637419478104
sS'c4_th1_Bs'
p331
F0.95962720086558329
sS'Ap2_Bs'
p332
F0.27464132670257657
sS'ds_Bs'
p333
F1.4717296086559359
sS'dd0_Bs_errlo'
p334
F-0.13077927494170188
sS'fpax_Bs_errlo'
p335
F-0.1032735436214632
sS'fL_Bs_errlo'
p336
F-0.28618651035005171
sS'fL_Bs_errhi'
p337
F0.23841849552819702
sS'ds_Bs_errlo'
p338
F-0.21303656808104518
sS'Ad02_Bs_errsim'
p339
F0.10913396683439253
sS'c2_th1_Bs'
p340
F-1.6172334328962208
sg44
F0.082767406822297621
sS'Adpe2_Bs_errsim'
p341
F0.038198096509049095
sS'ddpe_Bs_errlo'
p342
F0
sS'ddpa_Bs'
p343
F-0.10163290633951849
sS'dpa_Bs_errsim'
p344
F0.51206317634604748
sS'ddpe_Bs_errhi'
p345
F0.74515076770749888
sS'Ad02_Bs'
p346
F0.19669659385927379
sS'ddpe_Bs'
p347
F-1.7799303379929132
sS'Ap2_Bs_errlo'
p348
F-0.085502536410400065
sg53
F0.072528933231509163
sS'Adpa2_Bs_errsim'
p349
F0.029523398227733005
sS'c4_th2_Bs'
p350
F-0.49999920836520978
sS'ddpa_Bs_errlo'
p351
F-0.5178926879391027
sS'Ap2_Bs_errhi'
p352
F0.1489602558121273
sS'ddpe_Bs_errsim'
p353
F0.84417392940981628
sS'dpa_Bs_errlo'
p354
F-0.50021477165819139
sS'Adpe2_Bs_errlo'
p355
F0
sS'ddpa_Bs_errsim'
p356
F0.50925342260367978
sS'fL_Bs'
p357
F0.42581380804468527
sS'dd0_Bs_errhi'
p358
F0
sS'ds_Bs_errsim'
p359
F0.20305949395410305
sS'fL_Bs_errsim'
p360
F0.25108594763416303
sS'Ap2_Bs_errsim'
p361
F0.096213662864961635
sS'ds_Bs_errhi'
p362
F0.25733111970686118
sS'Adpe2_Bs_errhi'
p363
F0.05068200464178034
ssg69
F10.390811071606306
sg70
F49.410956230371951
sg71
F28.562697977067963
sg72
F15.462365466438797
sg73
F26.026345792560079
sa(dp364
g3
F50
sS'i'
I6
sg4
(lp365
I1500
aI1700
asg6
F1600
sg7
F8.8348554124577614
sg8
(dp366
S'Adpa2_Bs_errhi'
p367
F0.033030599573117839
sS'dpe_Bs'
p368
F0
sS'y_th1_Bs'
p369
F4.975242440252714e-12
sS'fpax_Bs'
p370
F0.36114576561944778
sS'Adpa2_Bs'
p371
F0.015313724704574649
sS'dd0_Bs'
p372
F-2.7051676682762973
sS'Adpa2_Bs_errlo'
p373
F-0.014722662600669085
sS'c3_th1_Bs'
p374
F-1.4999937140131336
sS'dd0_Bs_errsim'
p375
F0.43661842605304324
sS'fpax_Bs_errsim'
p376
F0.19760354882874329
sS'ddpa_Bs_errhi'
p377
F1.0152034048734024
sS'y_th2_Bs'
p378
F0.54349967154492507
sS'dpa_Bs_errhi'
p379
F0.59366835544897134
sS'Adpe2_Bs'
p380
F0.01938866060772948
sS'c1_th1_Bs'
p381
F0.3398490406989001
sS'c2_th2_Bs'
p382
F-0.0031267772164094154
sS'c3_th2_Bs'
p383
F-0.067664985584398707
sg27
F0.13275254344481821
sS'fpax_Bs_errhi'
p384
F0.20101414677853621
sS'Ad02_Bs_errlo'
p385
F-0.11076401191197753
sg30
F-0.13275254344481821
sS'dpa_Bs'
p386
F-1.2339990126744649
sS'Ad02_Bs_errhi'
p387
F0.096211048757025824
sS'c1_th2_Bs'
p388
F-0.47571336071797116
sS'c4_th1_Bs'
p389
F-0.49999981314240727
sS'Ap2_Bs'
p390
F0.28132669435105528
sS'ds_Bs'
p391
F2.7384649493443134
sS'dd0_Bs_errlo'
p392
F-0.51327046416016475
sS'fpax_Bs_errlo'
p393
F-0.20071001213809306
sS'fL_Bs_errlo'
p394
F-0.22912327149931672
sS'fL_Bs_errhi'
p395
F0.23178296015250152
sS'ds_Bs_errlo'
p396
F-0.64495905812196652
sS'Ad02_Bs_errsim'
p397
F0.10392198383175122
sS'c2_th1_Bs'
p398
F-0.30835368433224719
sg44
F0.13275254344481821
sS'Adpe2_Bs_errsim'
p399
F0.043997935116256409
sS'ddpe_Bs_errlo'
p400
F-1.1215590582815242
sS'ddpa_Bs'
p401
F-2.9017119476102562
sS'dpa_Bs_errsim'
p402
F0.56657395349259332
sS'ddpe_Bs_errhi'
p403
F1.1215590582815242
sS'Ad02_Bs'
p404
F0.6216887263570523
sS'ddpe_Bs'
p405
F-0.11255535831272212
sS'Ap2_Bs_errlo'
p406
F-0.09502626971788701
sg53
F0.21067402275731603
sS'Adpa2_Bs_errsim'
p407
F0.024915983434595584
sS'c4_th2_Bs'
p408
F-0.49999949789228809
sS'ddpa_Bs_errlo'
p409
F0
sS'Ap2_Bs_errhi'
p410
F0.12059566459130344
sS'ddpe_Bs_errsim'
p411
F1.1215590582815242
sS'dpa_Bs_errlo'
p412
F-0.58446259758929331
sS'Adpe2_Bs_errlo'
p413
F0
sS'ddpa_Bs_errsim'
p414
F0.82028906254933343
sS'fL_Bs'
p415
F0.41665099576631665
sS'dd0_Bs_errhi'
p416
F0.38850988498308919
sS'ds_Bs_errsim'
p417
F0.63903915769823416
sS'fL_Bs_errsim'
p418
F0.2454916445236337
sS'Ap2_Bs_errsim'
p419
F0.10917181107748958
sS'ds_Bs_errhi'
p420
F0.79837187324391301
sS'Adpe2_Bs_errhi'
p421
F0.051982486017033362
ssg69
F7.1219116629483912
sg70
F3.8614960267344736
sg71
F17.442255049765429
sg72
F4.5335048084905889
sg73
F40.6962489235001
sa.