(lp1
(dp2
S'mass_err'
p3
F28
sS'i'
I0
sS'mass_bin'
p4
(lp5
F744
aF856
asS'mass_mean'
p6
F800
sS'Ndwave_err'
p7
F7.7854560841258653
sS'params'
p8
(dp9
S'Adpa2_Bs_errhi'
p10
F0.033967131441184711
sS'dpe_Bs'
p11
F0
sS'Adpa2_Bs'
p12
F0.071902283135038159
sS'dd0_Bs'
p13
F-4.1807841333121871
sS'Adpa2_Bs_errlo'
p14
F-0.027110731682641939
sS'dd0_Bs_errsim'
p15
F0.19108728732940072
sS'As2_Bs_errhi'
p16
F0.077386250914151716
sS'dd0_Bs_errhi'
p17
F0.19650261732044133
sS'fpa_Bs'
p18
F0.08595356925091735
sS'ddpa_Bs_errhi'
p19
F0.29172664108680441
sS'dpa_Bs_errhi'
p20
F0.5441759903764628
sS'Adpe2_Bs'
p21
F0.036248324536421295
sS'As2_Bs_errsim'
p22
F0.075603700636290044
sS'fpa_Bs_errsim'
p23
F0.064208477130220321
sS'fpa_Bs_errhi'
p24
F0.076835201407311537
sS'Ad02_Bs_errlo'
p25
F-0.058058007396303971
sS'fpa_Bs_errlo'
p26
F-0.052441616587902154
sS'dpa_Bs'
p27
F-3.7985328964116656
sS'Ad02_Bs_errhi'
p28
F0.061582534984150304
sS'ddpe_Bs'
p29
F-0.19422158644681353
sS'dd0_Bs_errlo'
p30
F-0.14530429543837275
sS'fL_Bs_errlo'
p31
F-0.10251014898065429
sS'fL_Bs_errhi'
p32
F0.10636554018944484
sS'ds_Bs_errlo'
p33
F0
sS'Ad02_Bs_errsim'
p34
F0.060220625052332083
sS'ddpa_Bs'
p35
F1.0564770892397926
sS'Adpe2_Bs_errsim'
p36
F0.03217996211783633
sS'ddpe_Bs_errlo'
p37
F-0.67066492627579444
sS'As2_Bs'
p38
F0.41559270730404285
sS'dpa_Bs_errsim'
p39
F0.47334084744072502
sS'ddpe_Bs_errhi'
p40
F0.39484656321632228
sS'Ad02_Bs'
p41
F0.17877487941021525
sS'ds_Bs'
p42
F0.018195339218580801
sS'Adpa2_Bs_errsim'
p43
F0.030516562248511292
sS'ddpa_Bs_errlo'
p44
F-0.29003149052883237
sS'dpa_Bs_errlo'
p45
F-0.42486742853019921
sS'ddpe_Bs_errsim'
p46
F0.46178503386153502
sS'Adpe2_Bs_errlo'
p47
F-0.024393709953515818
sS'ddpa_Bs_errsim'
p48
F0.28989198038969355
sS'fL_Bs'
p49
F0.3449078660092465
sS'As2_Bs_errlo'
p50
F-0.073140501698181162
sS'ds_Bs_errsim'
p51
F0.42250120776215849
sS'fL_Bs_errsim'
p52
F0.10454567364693368
sS'ds_Bs_errhi'
p53
F0.1838422059282129
sS'Adpe2_Bs_errhi'
p54
F0.037348154037431636
ssS'Npwave_err'
p55
F6.2488593080055805
sS'Nswave'
p56
F40.312492608492157
sS'Npwave'
p57
F28.855735144585399
sS'Nswave_err'
p58
F8.3984918280821805
sS'Ndwave'
p59
F27.831772246922448
sa(dp60
g3
F20
sS'i'
I1
sg4
(lp61
F856
aF936
asg6
F896
sg7
F15.847130070698791
sg8
(dp62
S'Adpa2_Bs_errhi'
p63
F0.033376248003476286
sS'dpe_Bs'
p64
F0
sS'Adpa2_Bs'
p65
F0.079197035422635509
sS'dd0_Bs'
p66
F-3.7609556352457405
sS'Adpa2_Bs_errlo'
p67
F-0.031401168049809337
sS'dd0_Bs_errsim'
p68
F0.40720699646163871
sS'As2_Bs_errhi'
p69
F0.03689716936533461
sS'dd0_Bs_errhi'
p70
F0.52357814761210975
sS'fpa_Bs'
p71
F0.3290170166337586
sS'ddpa_Bs_errhi'
p72
F0.14587191202972394
sS'dpa_Bs_errhi'
p73
F0.13542185129592713
sS'Adpe2_Bs'
p74
F0.0070428634647267674
sS'As2_Bs_errsim'
p75
F0.037965556302270664
sS'fpa_Bs_errsim'
p76
F0.035323743707612293
sS'fpa_Bs_errhi'
p77
F0.035504727131055874
sS'Ad02_Bs_errlo'
p78
F-0.0058203551373476499
sS'fpa_Bs_errlo'
p79
F-0.035279030764310625
sS'dpa_Bs'
p80
F-1.7767448662113976
sS'Ad02_Bs_errhi'
p81
F0.010642459263357976
sS'ddpe_Bs'
p82
F0.42678827583211021
sS'dd0_Bs_errlo'
p83
F-0.46562805531778828
sS'fL_Bs_errlo'
p84
F-0.045865600567625273
sS'fL_Bs_errhi'
p85
F0.048747076818677404
sS'ds_Bs_errlo'
p86
F-0.14122793364954125
sS'Ad02_Bs_errsim'
p87
F0.0081497844627879401
sS'ddpa_Bs'
p88
F-0.1240151619197758
sS'Adpe2_Bs_errsim'
p89
F0.0075547899091258919
sS'ddpe_Bs_errlo'
p90
F-0.70785526769478579
sS'As2_Bs'
p91
F0.160438865968202
sS'dpa_Bs_errsim'
p92
F0.13595634526700762
sS'ddpe_Bs_errhi'
p93
F0.58441034533937997
sS'Ad02_Bs'
p94
F0.0072101095002098936
sS'ds_Bs'
p95
F1.4983639405355824
sS'Adpa2_Bs_errsim'
p96
F0.032395666085744845
sS'ddpa_Bs_errlo'
p97
F-0.14161637540499109
sS'dpa_Bs_errlo'
p98
F-0.13845277238265777
sS'ddpe_Bs_errsim'
p99
F0.62839580793005778
sS'Adpe2_Bs_errlo'
p100
F-0.0055316746393884219
sS'ddpa_Bs_errsim'
p101
F0.14235625124957196
sS'fL_Bs'
p102
F0.13639095437529486
sS'As2_Bs_errlo'
p103
F-0.039937847592339051
sS'ds_Bs_errsim'
p104
F0.13987252171717668
sS'fL_Bs_errsim'
p105
F0.047771610892104216
sS'ds_Bs_errhi'
p106
F0.14021561530957088
sS'Adpe2_Bs_errhi'
p107
F0.0097178140357161921
ssg55
F35.065686916343957
sg56
F73.641439479404724
sg57
F342.46500667069967
sg58
F17.761955379400785
sg59
F42.893553849895625
sa(dp108
g3
F16
sS'i'
I2
sg4
(lp109
F936
aF1000
asg6
F968
sg7
F11.572201863232239
sg8
(dp110
S'Adpa2_Bs_errhi'
p111
F0.033117340600612985
sS'dpe_Bs'
p112
F0
sS'Adpa2_Bs'
p113
F0.050031781648205875
sS'dd0_Bs'
p114
F-1.1348169791964189
sS'Adpa2_Bs_errlo'
p115
F-0.024960231027294468
sS'dd0_Bs_errsim'
p116
F0.17040523657664197
sS'As2_Bs_errhi'
p117
F0.042158402697914835
sS'dd0_Bs_errhi'
p118
F0.18059037908545902
sS'fpa_Bs'
p119
F0.18765134062152106
sS'ddpa_Bs_errhi'
p120
F0.27120676643171926
sS'dpa_Bs_errhi'
p121
F0.24114406147816903
sS'Adpe2_Bs'
p122
F0.10184888031400768
sS'As2_Bs_errsim'
p123
F0.039589180774784793
sS'fpa_Bs_errsim'
p124
F0.066199830618761446
sS'fpa_Bs_errhi'
p125
F0.071444929956617609
sS'Ad02_Bs_errlo'
p126
F-0.047231382642400517
sS'fpa_Bs_errlo'
p127
F-0.061620404265999879
sS'dpa_Bs'
p128
F-2.0971979780178138
sS'Ad02_Bs_errhi'
p129
F0.051202362520966334
sS'ddpe_Bs'
p130
F3.1415926535864145
sS'dd0_Bs_errlo'
p131
F-0.16421049652770475
sS'fL_Bs_errlo'
p132
F-0.084987402966423486
sS'fL_Bs_errhi'
p133
F0.083018064686316423
sS'ds_Bs_errlo'
p134
F-0.24885526893094193
sS'Ad02_Bs_errsim'
p135
F0.04925662041855558
sS'ddpa_Bs'
p136
F2.1026112182887804
sS'Adpe2_Bs_errsim'
p137
F0.048803258145560136
sS'ddpe_Bs_errlo'
p138
F-0.10563057255936446
sS'As2_Bs'
p139
F0.14904160810569217
sS'dpa_Bs_errsim'
p140
F0.23440041517160015
sS'ddpe_Bs_errhi'
p141
F0
sS'Ad02_Bs'
p142
F0.16927475460760111
sS'ds_Bs'
p143
F2.8299837730159747
sS'Adpa2_Bs_errsim'
p144
F0.029156035625584886
sS'ddpa_Bs_errlo'
p145
F-0.28008295743695832
sS'dpa_Bs_errlo'
p146
F-0.2314776984808635
sS'ddpe_Bs_errsim'
p147
F0.13117394375035163
sS'Adpe2_Bs_errlo'
p148
F-0.044549998025694947
sS'ddpa_Bs_errsim'
p149
F0.26939981957324566
sS'fL_Bs'
p150
F0.44554811357870366
sS'As2_Bs_errlo'
p151
F-0.037242379965530967
sS'ds_Bs_errsim'
p152
F0.24320918508453127
sS'fL_Bs_errsim'
p153
F0.083508192950281612
sS'ds_Bs_errhi'
p154
F0.2383019124497297
sS'Adpe2_Bs_errhi'
p155
F0.052825787987552324
ssg55
F13.518864858351625
sg56
F21.611033175325364
sg57
F76.821431422051489
sg58
F6.0144404262513742
sg59
F46.567535402623129
sa(dp156
g3
F50
sS'i'
I3
sg4
(lp157
F1000
aI1200
asg6
F1100
sg7
F8.0384592745081118
sg8
(dp158
S'Adpa2_Bs_errhi'
p159
F0.015407742295753301
sS'dpe_Bs'
p160
F0
sS'Adpa2_Bs'
p161
F0.019817721816662526
sS'dd0_Bs'
p162
F-0.97523372969980926
sS'Adpa2_Bs_errlo'
p163
F-0.011257200005873073
sS'dd0_Bs_errsim'
p164
F0.71035247374498134
sS'As2_Bs_errhi'
p165
F0.064220082607029105
sS'dd0_Bs_errhi'
p166
F0.72737357706044614
sS'fpa_Bs'
p167
F0.22980921966411794
sS'ddpa_Bs_errhi'
p168
F0.46775454378952286
sS'dpa_Bs_errhi'
p169
F0.24968959644060373
sS'Adpe2_Bs'
p170
F0.041027113328000631
sS'As2_Bs_errsim'
p171
F0.071385687951198207
sS'fpa_Bs_errsim'
p172
F0.11486742832448357
sS'fpa_Bs_errhi'
p173
F0.12820057192175877
sS'Ad02_Bs_errlo'
p174
F-0.0077665815576485435
sS'fpa_Bs_errlo'
p175
F-0.102855345856577
sS'dpa_Bs'
p176
F-2.960506721466488
sS'Ad02_Bs_errhi'
p177
F0.013426984734909751
sS'ddpe_Bs'
p178
F2.1639972977396704
sS'dd0_Bs_errlo'
p179
F-0.69316925660277295
sS'fL_Bs_errlo'
p180
F-0.14893321882145685
sS'fL_Bs_errhi'
p181
F0.14469485926038067
sS'ds_Bs_errlo'
p182
F-0.14877727403294438
sS'Ad02_Bs_errsim'
p183
F0.010128434042947249
sS'ddpa_Bs'
p184
F1.328566043989075
sS'Adpe2_Bs_errsim'
p185
F0.024536553627371727
sS'ddpe_Bs_errlo'
p186
F-0.26212341786870014
sS'As2_Bs'
p187
F0.65374565566586529
sS'dpa_Bs_errsim'
p188
F0.22358849019222271
sS'ddpe_Bs_errhi'
p189
F0.29394900846048222
sS'Ad02_Bs'
p190
F0.011609032928650731
sS'ds_Bs'
p191
F1.9074152365287769
sS'Adpa2_Bs_errsim'
p192
F0.013495102041086449
sS'ddpa_Bs_errlo'
p193
F-0.37164715877282678
sS'dpa_Bs_errlo'
p194
F-0.21593153216612856
sS'ddpe_Bs_errsim'
p195
F0.26685693087262941
sS'Adpe2_Bs_errlo'
p196
F-0.021166348637820975
sS'ddpa_Bs_errsim'
p197
F0.40556758367055146
sS'fL_Bs'
p198
F0.27846629512867427
sS'As2_Bs_errlo'
p199
F-0.079182349968492799
sS'ds_Bs_errsim'
p200
F0.16841747579222743
sS'fL_Bs_errsim'
p201
F0.14984724771835295
sS'ds_Bs_errhi'
p202
F0.21383296529212134
sS'Adpe2_Bs_errhi'
p203
F0.027772100350195866
ssg55
F18.368526103719379
sg56
F174.55009006278604
sg57
F73.104727161639161
sg58
F21.849351259703333
sg59
F19.345182775574809
sa(dp204
g3
F125
sS'i'
I4
sg4
(lp205
I1200
aI1700
asg6
F1450
sg7
F24.177724521551681
sg8
(dp206
S'Adpa2_Bs_errhi'
p207
F0.0018051144143896131
sS'dpe_Bs'
p208
F0
sS'Adpa2_Bs'
p209
F0.00078765090006283067
sS'dd0_Bs'
p210
F-1.3922633525622174
sS'Adpa2_Bs_errlo'
p211
F-0.00075474636501554886
sS'dd0_Bs_errsim'
p212
F0.046487474525229278
sS'As2_Bs_errhi'
p213
F0.01860745967471944
sS'dd0_Bs_errhi'
p214
F0.046720701746151817
sS'fpa_Bs'
p215
F0.050987499072656706
sS'ddpa_Bs_errhi'
p216
F0.27035722787190425
sS'dpa_Bs_errhi'
p217
F0.1855501281523495
sS'Adpe2_Bs'
p218
F0.0018342231935793429
sS'As2_Bs_errsim'
p219
F0.017629516496642239
sS'fpa_Bs_errsim'
p220
F0.013353979551980671
sS'fpa_Bs_errhi'
p221
F0.014043745667776933
sS'Ad02_Bs_errlo'
p222
F-0.033903785485854057
sS'fpa_Bs_errlo'
p223
F-0.012685896474943878
sS'dpa_Bs'
p224
F-2.4146148716505595
sS'Ad02_Bs_errhi'
p225
F0.033534058165552799
sS'ddpe_Bs'
p226
F2.6752702819757417
sS'dd0_Bs_errlo'
p227
F-0.046364529738813484
sS'fL_Bs_errlo'
p228
F-0.029751594832416513
sS'fL_Bs_errhi'
p229
F0.028658651346754958
sS'ds_Bs_errlo'
p230
F-0.082500711471717975
sS'Ad02_Bs_errsim'
p231
F0.033692601884977358
sS'ddpa_Bs'
p232
F-3.1415926530100631
sS'Adpe2_Bs_errsim'
p233
F0.0032010576385700651
sS'ddpe_Bs_errlo'
p234
F-1.2909987953820545
sS'As2_Bs'
p235
F0.10321406952930307
sS'dpa_Bs_errsim'
p236
F0.17916463889627154
sS'ddpe_Bs_errhi'
p237
F0
sS'Ad02_Bs'
p238
F0.31603091517496718
sS'ds_Bs'
p239
F1.6685064057279479
sS'Adpa2_Bs_errsim'
p240
F0.0012522659733976427
sS'ddpa_Bs_errlo'
p241
F0
sS'dpa_Bs_errlo'
p242
F-0.17506291142074493
sS'ddpe_Bs_errsim'
p243
F0.65844908542149483
sS'Adpe2_Bs_errlo'
p244
F-0.001770119667142897
sS'ddpa_Bs_errsim'
p245
F0.18527588308074594
sS'fL_Bs'
p246
F0.7169303744595773
sS'As2_Bs_errlo'
p247
F-0.016768465602040355
sS'ds_Bs_errsim'
p248
F0.082607920957654568
sS'fL_Bs_errsim'
p249
F0.029151097820790062
sS'ds_Bs_errhi'
p250
F0.083220132596325935
sS'Adpe2_Bs_errhi'
p251
F0.0047555193348269428
ssg55
F23.532063576641743
sg56
F69.256640654162354
sg57
F387.92733774660076
sg58
F12.127781983758416
sg59
F213.81602159923688
sa.