(lp1
(dp2
S'mass_err'
p3
F28
sS'i'
I0
sS'mass_bin'
p4
(lp5
F744
aF856
asS'mass_mean'
p6
F800
sS'Ndwave_err'
p7
F5.053241388147562
sS'params'
p8
(dp9
S'Adpa2_Bs_errhi'
p10
F0.059489703982478798
sS'dpe_Bs'
p11
F0
sS'y_th1_Bs'
p12
F3.9386403027918959e-09
sS'fpax_Bs'
p13
F0.34041952345931503
sS'Adpa2_Bs'
p14
F0.01337161097498174
sS'dd0_Bs'
p15
F-0.98119570064298234
sS'Adpa2_Bs_errlo'
p16
F0
sS'c3_th1_Bs'
p17
F-0.63583611593509071
sS'dd0_Bs_errsim'
p18
F0.75280532812899947
sS'fpax_Bs_errsim'
p19
F0.18282360245708745
sS'ddpa_Bs_errhi'
p20
F1.2301760311477057
sS'y_th2_Bs'
p21
F0.045068713394985582
sS'dpa_Bs_errhi'
p22
F0.47277806728212085
sS'Adpe2_Bs'
p23
F0.023556525892738767
sS'c1_th1_Bs'
p24
F-0.1767912943231385
sS'c2_th2_Bs'
p25
F-0.56687352639598121
sS'c3_th2_Bs'
p26
F-1.0796218610480903
sS'fpa_Bs_errsim'
p27
F0.095204167701144399
sS'fpax_Bs_errhi'
p28
F0.19431377393652272
sS'Ad02_Bs_errlo'
p29
F-0.047635783544720409
sS'fpa_Bs_errlo'
p30
F-0.095204167701144399
sS'dpa_Bs'
p31
F-1.1193996907815
sS'Ad02_Bs_errhi'
p32
F0.13579866796016893
sS'c1_th2_Bs'
p33
F-0.0043282110519327066
sS'c4_th1_Bs'
p34
F-0.16123688640857492
sS'Ap2_Bs'
p35
F0.76945538977591288
sS'ds_Bs'
p36
F0.93617382576676467
sS'dd0_Bs_errlo'
p37
F-0.93848760120106423
sS'fpax_Bs_errlo'
p38
F-0.173716156782565
sS'fL_Bs_errlo'
p39
F-0.2920074094215811
sS'fL_Bs_errhi'
p40
F0.12065629508768549
sS'ds_Bs_errlo'
p41
F0
sS'Ad02_Bs_errsim'
p42
F0.11176859967952682
sS'c2_th1_Bs'
p43
F-0.37162677930880395
sS'fpa_Bs_errhi'
p44
F0.095204167701144399
sS'Adpe2_Bs_errsim'
p45
F0.03187614575110681
sS'ddpe_Bs_errlo'
p46
F-1.1214934292576084
sS'ddpa_Bs'
p47
F-1.397870494495824
sS'dpa_Bs_errsim'
p48
F0.45125523840249526
sS'ddpe_Bs_errhi'
p49
F1.1156410111328603
sS'Ad02_Bs'
p50
F0.047647288789380626
sS'ddpe_Bs'
p51
F1.4280869971865346
sS'Ap2_Bs_errlo'
p52
F-0.31048998366471148
sS'fpa_Bs'
p53
F0.15145289496538927
sS'Adpa2_Bs_errsim'
p54
F0.038829611161821931
sS'c4_th2_Bs'
p55
F0.078674473407287282
sS'ddpa_Bs_errlo'
p56
F-1.2301760311477057
sS'Ap2_Bs_errhi'
p57
F0.085987149277560349
sS'ddpe_Bs_errsim'
p58
F1.2931532442846891
sS'dpa_Bs_errlo'
p59
F-0.44191829858002202
sS'Adpe2_Bs_errlo'
p60
F-0.02101107278138227
sS'ddpa_Bs_errsim'
p61
F1.2301760311477057
sS'fL_Bs'
p62
F0.55509926861321734
sS'dd0_Bs_errhi'
p63
F0
sS'ds_Bs_errsim'
p64
F0.48408562118397525
sS'fL_Bs_errsim'
p65
F0.14026893245147054
sS'Ap2_Bs_errsim'
p66
F0.1162865036918862
sS'ds_Bs_errhi'
p67
F0.3919815450470181
sS'Adpe2_Bs_errhi'
p68
F0.047854200400336881
ssS'Npwave_err'
p69
F6.8560873391962929
sS'Nswave'
p70
F5.9847365672464257
sS'Npwave'
p71
F31.547670980812427
sS'Nswave_err'
p72
F7.2936937171093792
sS'Ndwave'
p73
F3.4675924519411465
sa(dp74
g3
F20
sS'i'
I1
sg4
(lp75
F856
aF936
asg6
F896
sg7
F20.084050316166113
sg8
(dp76
S'Adpa2_Bs_errhi'
p77
F0.019366914702241715
sS'dpe_Bs'
p78
F0
sS'y_th1_Bs'
p79
F4.5130565951012613e-14
sS'fpax_Bs'
p80
F0.33672105528899354
sS'Adpa2_Bs'
p81
F0.0077886563073044646
sS'dd0_Bs'
p82
F-1.2688384104208321
sS'Adpa2_Bs_errlo'
p83
F-0.007763741545595922
sS'c3_th1_Bs'
p84
F-0.74872701014978704
sS'dd0_Bs_errsim'
p85
F0.19181779780795294
sS'fpax_Bs_errsim'
p86
F0.067731130051736727
sS'ddpa_Bs_errhi'
p87
F0
sS'y_th2_Bs'
p88
F5.2356087520966099e-08
sS'dpa_Bs_errhi'
p89
F0.25110021553514894
sS'Adpe2_Bs'
p90
F0.057535378847385965
sS'c1_th1_Bs'
p91
F-0.13210956434574217
sS'c2_th2_Bs'
p92
F-0.49196702170550166
sS'c3_th2_Bs'
p93
F-0.51241681812030837
sg27
F0.050550251076941492
sS'fpax_Bs_errhi'
p94
F0.068331547020116429
sS'Ad02_Bs_errlo'
p95
F-0.085138022430430754
sg30
F-0.050550251076941492
sS'dpa_Bs'
p96
F-1.8319542138360712
sS'Ad02_Bs_errhi'
p97
F0.080553677755009503
sS'c1_th2_Bs'
p98
F-0.13023225315669501
sS'c4_th1_Bs'
p99
F-0.18782133927144212
sS'Ap2_Bs'
p100
F0.73349225663866913
sS'ds_Bs'
p101
F2.5290195660579768
sS'dd0_Bs_errlo'
p102
F-0.19997480724931879
sS'fpax_Bs_errlo'
p103
F-0.067540607005281222
sS'fL_Bs_errlo'
p104
F-0.074329050765374813
sS'fL_Bs_errhi'
p105
F0.06931913241404862
sS'ds_Bs_errlo'
p106
F-0.5124444357512038
sS'Ad02_Bs_errsim'
p107
F0.082450753696911738
sS'c2_th1_Bs'
p108
F-0.30990117775055248
sg44
F0.050550251076941492
sS'Adpe2_Bs_errsim'
p109
F0.032817761455272959
sS'ddpe_Bs_errlo'
p110
F-0.47712878322659846
sS'ddpa_Bs'
p111
F2.5243053962901767
sS'dpa_Bs_errsim'
p112
F0.25490187094737093
sS'ddpe_Bs_errhi'
p113
F0.46897109495195061
sS'Ad02_Bs'
p114
F0.17060923187134786
sS'ddpe_Bs'
p115
F2.1207567161490113
sS'Ap2_Bs_errlo'
p116
F-0.089821154144070936
sg53
F0.2248533730835425
sS'Adpa2_Bs_errsim'
p117
F0.014349881699474071
sS'c4_th2_Bs'
p118
F-0.020323071987913055
sS'ddpa_Bs_errlo'
p119
F-1.6784071018918152
sS'Ap2_Bs_errhi'
p120
F0.089821154144070936
sS'ddpe_Bs_errsim'
p121
F0.48374851606526548
sS'dpa_Bs_errlo'
p122
F-0.2583494182133802
sS'Adpe2_Bs_errlo'
p123
F-0.028370847402595392
sS'ddpa_Bs_errsim'
p124
F0.59511216509585996
sS'fL_Bs'
p125
F0.3322265728510494
sS'dd0_Bs_errhi'
p126
F0.18723282483579917
sS'ds_Bs_errsim'
p127
F0.57880071737041217
sS'fL_Bs_errsim'
p128
F0.071495436993757933
sS'Ap2_Bs_errsim'
p129
F0.089821154144070936
sS'ds_Bs_errhi'
p130
F0.62136211544953868
sS'Adpe2_Bs_errhi'
p131
F0
ssg69
F22.557611552169394
sg70
F6.7263847937643693
sg71
F161.3682964605072
sg72
F36.864256793451723
sg73
F51.905318745728422
sa(dp132
g3
F28.5
sS'i'
I2
sg4
(lp133
F936
aF1050
asg6
F993
sg7
F85.978321267654195
sg8
(dp134
S'Adpa2_Bs_errhi'
p135
F0.0525257082847055
sS'dpe_Bs'
p136
F0
sS'y_th1_Bs'
p137
F5.007150249980441e-11
sS'fpax_Bs'
p138
F0.27878905185558123
sS'Adpa2_Bs'
p139
F0.006598273465889426
sS'dd0_Bs'
p140
F-3.3066260840541872e-10
sS'Adpa2_Bs_errlo'
p141
F0
sS'c3_th1_Bs'
p142
F0.22184500085457048
sS'dd0_Bs_errsim'
p143
F4.1980384990549826
sS'fpax_Bs_errsim'
p144
F0.16163658627802666
sS'ddpa_Bs_errhi'
p145
F0.65882499826493324
sS'y_th2_Bs'
p146
F1.5675100106804507e-10
sS'dpa_Bs_errhi'
p147
F0.51975317716137326
sS'Adpe2_Bs'
p148
F0.02397462073686879
sS'c1_th1_Bs'
p149
F-0.41657310086883559
sS'c2_th2_Bs'
p150
F-0.022432210107675932
sS'c3_th2_Bs'
p151
F-1.4730880742515413
sg27
F0.21936537535843942
sS'fpax_Bs_errhi'
p152
F0
sS'Ad02_Bs_errlo'
p153
F-0.66518539566499191
sg30
F-0.21936537535843942
sS'dpa_Bs'
p154
F-1.6785410847537161
sS'Ad02_Bs_errhi'
p155
F0.66518539566499191
sS'c1_th2_Bs'
p156
F0.15848851956770627
sS'c4_th1_Bs'
p157
F0.054643092259460291
sS'Ap2_Bs'
p158
F0.49674647989539167
sS'ds_Bs'
p159
F2.1544291700823361
sS'dd0_Bs_errlo'
p160
F-4.1980384990549826
sS'fpax_Bs_errlo'
p161
F-0.10389980500710989
sS'fL_Bs_errlo'
p162
F0
sS'fL_Bs_errhi'
p163
F0.11372434573138834
sS'ds_Bs_errlo'
p164
F-0.35063838502629363
sS'Ad02_Bs_errsim'
p165
F0.66518539566499191
sS'c2_th1_Bs'
p166
F-0.63461334429864147
sg44
F0.21936537535843942
sS'Adpe2_Bs_errsim'
p167
F0.03692790447589539
sS'ddpe_Bs_errlo'
p168
F-0.47889251708685238
sS'ddpa_Bs'
p169
F0.19162381362371272
sS'dpa_Bs_errsim'
p170
F0.51975317716137326
sS'ddpe_Bs_errhi'
p171
F0
sS'Ad02_Bs'
p172
F0.00054967204109929169
sS'ddpe_Bs'
p173
F2.915825755415729
sS'Ap2_Bs_errlo'
p174
F-0.27609505534213302
sg53
F0.15559663262129839
sS'Adpa2_Bs_errsim'
p175
F0.019432285747610578
sS'c4_th2_Bs'
p176
F-0.49999867642252427
sS'ddpa_Bs_errlo'
p177
F-0.65882499826493324
sS'Ap2_Bs_errhi'
p178
F0.12028283094754638
sS'ddpe_Bs_errsim'
p179
F0.53535427547236614
sS'dpa_Bs_errlo'
p180
F-0.51975317716137326
sS'Adpe2_Bs_errlo'
p181
F-0.018603085538839884
sS'ddpa_Bs_errsim'
p182
F0.65882499826493324
sS'fL_Bs'
p183
F0.44188399226702479
sS'dd0_Bs_errhi'
p184
F4.1980384990549826
sS'ds_Bs_errsim'
p185
F0.35063838502629363
sS'fL_Bs_errsim'
p186
F0.7185326618042065
sS'Ap2_Bs_errsim'
p187
F0.74667851801256391
sS'ds_Bs_errhi'
p188
F0.35063838502629363
sS'Adpe2_Bs_errhi'
p189
F0.030491461050919856
ssg69
F96.486623820827162
sg70
F60.904893048036861
sg71
F64.080295906505526
sg72
F102.54978369479689
sg73
F4.0148110454576189
sa(dp190
g3
F37.5
sS'i'
I3
sg4
(lp191
F1050
aI1200
asg6
F1125
sg7
F8.5357078986342376
sg8
(dp192
S'Adpa2_Bs_errhi'
p193
F0.025702323132529278
sS'dpe_Bs'
p194
F0
sS'y_th1_Bs'
p195
F0.048807555790639612
sS'fpax_Bs'
p196
F0.92124427584336699
sS'Adpa2_Bs'
p197
F0.0092310616173498783
sS'dd0_Bs'
p198
F-0.74019701363454526
sS'Adpa2_Bs_errlo'
p199
F-0.0092116798859081216
sS'c3_th1_Bs'
p200
F-0.29183174085981767
sS'dd0_Bs_errsim'
p201
F0.93335205901097051
sS'fpax_Bs_errsim'
p202
F0.92192117445665911
sS'ddpa_Bs_errhi'
p203
F0
sS'y_th2_Bs'
p204
F9.915150028794173e-08
sS'dpa_Bs_errhi'
p205
F1.3056049086452246
sS'Adpe2_Bs'
p206
F0.15267629313433517
sS'c1_th1_Bs'
p207
F-0.26522069033835383
sS'c2_th2_Bs'
p208
F-0.56558799691569739
sS'c3_th2_Bs'
p209
F-0.30993461341455886
sg27
F0.4511959000168615
sS'fpax_Bs_errhi'
p210
F0
sS'Ad02_Bs_errlo'
p211
F-0.061022675846778264
sg30
F-0.4511959000168615
sS'dpa_Bs'
p212
F-1.432986323510999
sS'Ad02_Bs_errhi'
p213
F0.092568236990311123
sS'c1_th2_Bs'
p214
F-0.34328755595739441
sS'c4_th1_Bs'
p215
F0.34657034877815318
sS'Ap2_Bs'
p216
F0.10255575297107195
sS'ds_Bs'
p217
F3.9636502516260901
sS'dd0_Bs_errlo'
p218
F-4.3894107962944933
sS'fpax_Bs_errlo'
p219
F-0.42793306059885883
sS'fL_Bs_errlo'
p220
F0
sS'fL_Bs_errhi'
p221
F0.36870928486076682
sS'ds_Bs_errlo'
p222
F0
sS'Ad02_Bs_errsim'
p223
F0.079463413729015303
sS'c2_th1_Bs'
p224
F-0.9250967084628543
sg44
F0.4511959000168615
sS'Adpe2_Bs_errsim'
p225
F0.070791409097543945
sS'ddpe_Bs_errlo'
p226
F-4.0364901414832941
sS'ddpa_Bs'
p227
F2.1987789637925124
sS'dpa_Bs_errsim'
p228
F0.94692199078126293
sS'ddpe_Bs_errhi'
p229
F1.1960148100951411
sS'Ad02_Bs'
p230
F0.062517004531377041
sS'ddpe_Bs'
p231
F1.0332840147826792
sS'Ap2_Bs_errlo'
p232
F-0.05331459876860762
sg53
F0.78353867691990142
sS'Adpa2_Bs_errsim'
p233
F0.017564157623610077
sS'c4_th2_Bs'
p234
F0.1083193593380074
sS'ddpa_Bs_errlo'
p235
F-4.3926890215213028
sS'Ap2_Bs_errhi'
p236
F0.10651517589806328
sS'ddpe_Bs_errsim'
p237
F0.94249702171302041
sS'dpa_Bs_errlo'
p238
F-4.0166047439379255
sS'Adpe2_Bs_errlo'
p239
F-0.067921169937506992
sS'ddpa_Bs_errsim'
p240
F1.1317405889163716
sS'fL_Bs'
p241
F0.14947783398426107
sS'dd0_Bs_errhi'
p242
F0
sS'ds_Bs_errsim'
p243
F0.97428364467635786
sS'fL_Bs_errsim'
p244
F0.29798766065682725
sS'Ap2_Bs_errsim'
p245
F0.080802017002831295
sS'ds_Bs_errhi'
p246
F1.1375645615158649
sS'Adpe2_Bs_errhi'
p247
F0.073930068774456584
ssg69
F6.2865014656625329
sg70
F51.822531356431689
sg71
F7.8967929787725399
sg72
F11.17016494639244
sg73
F17.28067566479578
sa(dp248
g3
F37.5
sS'i'
I4
sg4
(lp249
I1200
aI1350
asg6
F1275
sg7
F12.915787523643266
sg8
(dp250
S'Adpa2_Bs_errhi'
p251
F0.039002036268698928
sS'dpe_Bs'
p252
F0
sS'y_th1_Bs'
p253
F8.3772672132553794e-10
sS'fpax_Bs'
p254
F0.0093615257654703354
sS'Adpa2_Bs'
p255
F0.056006783355345757
sS'dd0_Bs'
p256
F-0.00041104412459080919
sS'Adpa2_Bs_errlo'
p257
F-0.039547488068862199
sS'c3_th1_Bs'
p258
F-0.92933856551161198
sS'dd0_Bs_errsim'
p259
F1.3634470586487737
sS'fpax_Bs_errsim'
p260
F0.045417919995659167
sS'ddpa_Bs_errhi'
p261
F0.31182363202110408
sS'y_th2_Bs'
p262
F0.15752515616302565
sS'dpa_Bs_errhi'
p263
F2.3580387448015574
sS'Adpe2_Bs'
p264
F0.0033385974433359777
sS'c1_th1_Bs'
p265
F-0.27512035785419825
sS'c2_th2_Bs'
p266
F-0.069243311873911528
sS'c3_th2_Bs'
p267
F-1.1748801996844342
sg27
F0.024645490141576087
sS'fpax_Bs_errhi'
p268
F0.15105247378480824
sS'Ad02_Bs_errlo'
p269
F-0.075485171947006796
sg30
F-0.024645490141576087
sS'dpa_Bs'
p270
F-1.8771347718490139
sS'Ad02_Bs_errhi'
p271
F0.094869342600699569
sS'c1_th2_Bs'
p272
F0.20947949443044067
sS'c4_th1_Bs'
p273
F-0.49999975477413239
sS'Ap2_Bs'
p274
F0.10493664351573706
sS'ds_Bs'
p275
F1.3324871011398063
sS'dd0_Bs_errlo'
p276
F-1.3634470586487737
sS'fpax_Bs_errlo'
p277
F0
sS'fL_Bs_errlo'
p278
F0
sS'fL_Bs_errhi'
p279
F0.28181998328881647
sS'ds_Bs_errlo'
p280
F0
sS'Ad02_Bs_errsim'
p281
F0.088121374351327886
sS'c2_th1_Bs'
p282
F-0.16993148381985224
sg44
F0.024645490141576087
sS'Adpe2_Bs_errsim'
p283
F0.0073120852599206643
sS'ddpe_Bs_errlo'
p284
F-2.6653048770980172
sS'ddpa_Bs'
p285
F0.11506445206266536
sS'dpa_Bs_errsim'
p286
F2.3580387448015574
sS'ddpe_Bs_errhi'
p287
F1.7432509635167999
sS'Ad02_Bs'
p288
F0.097087094637379689
sS'ddpe_Bs'
p289
F0.086542358265452091
sS'Ap2_Bs_errlo'
p290
F-0.037544862874004339
sg53
F0.0081902890706942438
sS'Adpa2_Bs_errsim'
p291
F0.037785520323961763
sS'c4_th2_Bs'
p292
F-0.49999841802912337
sS'ddpa_Bs_errlo'
p293
F-1.5018826323358514
sS'Ap2_Bs_errhi'
p294
F0.052867428202963272
sS'ddpe_Bs_errsim'
p295
F1.7485111348815525
sS'dpa_Bs_errlo'
p296
F-2.3580387448015574
sS'Adpe2_Bs_errlo'
p297
F-0.0033285664405203939
sS'ddpa_Bs_errsim'
p298
F0.325039344418103
sS'fL_Bs'
p299
F0.12511173115563684
sS'dd0_Bs_errhi'
p300
F1.3634470586487737
sS'ds_Bs_errsim'
p301
F0.24609781707819511
sS'fL_Bs_errsim'
p302
F0.2235962029296712
sS'Ap2_Bs_errsim'
p303
F0.042633392630332057
sS'ds_Bs_errhi'
p304
F0.21789977219111797
sS'Adpe2_Bs_errhi'
p305
F0.016169215063042967
ssg69
F5.7979471779560754
sg70
F98.237907179410811
sg71
F13.956573587593029
sg72
F16.39803113453419
sg73
F20.805519232996168
sa(dp306
g3
F37.5
sS'i'
I5
sg4
(lp307
I1350
aI1500
asg6
F1425
sg7
F19.14195432699853
sg8
(dp308
S'Adpa2_Bs_errhi'
p309
F0.018286891373897732
sS'dpe_Bs'
p310
F0
sS'y_th1_Bs'
p311
F2.6738448899443767e-08
sS'fpax_Bs'
p312
F0.11528558080292628
sS'Adpa2_Bs'
p313
F0.014543246192570192
sS'dd0_Bs'
p314
F-0.35932162883972207
sS'Adpa2_Bs_errlo'
p315
F-0.012733603567586882
sS'c3_th1_Bs'
p316
F-0.15814744666566138
sS'dd0_Bs_errsim'
p317
F0.26982714466179081
sS'fpax_Bs_errsim'
p318
F0.12072397270827151
sS'ddpa_Bs_errhi'
p319
F0.89515371457298165
sS'y_th2_Bs'
p320
F0.3835901601842221
sS'dpa_Bs_errhi'
p321
F0
sS'Adpe2_Bs'
p322
F0.10864663434952737
sS'c1_th1_Bs'
p323
F-0.272746580541393
sS'c2_th2_Bs'
p324
F0.090814890675937399
sS'c3_th2_Bs'
p325
F0.9999975317141625
sg27
F0.085188105760646129
sS'fpax_Bs_errhi'
p326
F0.16769162261456816
sS'Ad02_Bs_errlo'
p327
F-0.13152200677277986
sg30
F-0.085188105760646129
sS'dpa_Bs'
p328
F-0.00019478612962497976
sS'Ad02_Bs_errhi'
p329
F0.11302844856960344
sS'c1_th2_Bs'
p330
F-0.49999829199668855
sS'c4_th1_Bs'
p331
F0.91436848923007208
sS'Ap2_Bs'
p332
F0.15652902717078904
sS'ds_Bs'
p333
F4.3902273040430382
sS'dd0_Bs_errlo'
p334
F-0.44118936893029659
sS'fpax_Bs_errlo'
p335
F-0.090598871920777993
sS'fL_Bs_errlo'
p336
F-0.2709913787042228
sS'fL_Bs_errhi'
p337
F0.24730687430331061
sS'ds_Bs_errlo'
p338
F-0.51761696562017101
sS'Ad02_Bs_errsim'
p339
F0.11965870302352569
sS'c2_th1_Bs'
p340
F-1.557998315835867
sg44
F0.085188105760646129
sS'Adpe2_Bs_errsim'
p341
F0.059050170172744387
sS'ddpe_Bs_errlo'
p342
F-0.43700849760745419
sS'ddpa_Bs'
p343
F1.7371899138245208
sS'dpa_Bs_errsim'
p344
F0.72191032598684979
sS'ddpe_Bs_errhi'
p345
F0.36115653629884437
sS'Ad02_Bs'
p346
F0.23416641097746155
sS'ddpe_Bs'
p347
F1.1474987141619986
sS'Ap2_Bs_errlo'
p348
F-0.068727168815561693
sg53
F0.078995967692820204
sS'Adpa2_Bs_errsim'
p349
F0.015514821672905021
sS'c4_th2_Bs'
p350
F-0.49999981525856518
sS'ddpa_Bs_errlo'
p351
F-1.070552033499657
sS'Ap2_Bs_errhi'
p352
F0.081543342372739705
sS'ddpe_Bs_errsim'
p353
F0.34988283856666258
sS'dpa_Bs_errlo'
p354
F-0.46645900292596226
sS'Adpe2_Bs_errlo'
p355
F-0.054651985806526561
sS'ddpa_Bs_errsim'
p356
F0.76110808037579059
sS'fL_Bs'
p357
F0.31478015600355935
sS'dd0_Bs_errhi'
p358
F0.25722507993162091
sS'ds_Bs_errsim'
p359
F0.34636950787108711
sS'fL_Bs_errsim'
p360
F0.26240077768197556
sS'Ap2_Bs_errsim'
p361
F0.07448155281154395
sS'ds_Bs_errhi'
p362
F0.3192299423010509
sS'Adpe2_Bs_errhi'
p363
F0.06794924652145222
ssg69
F10.51612886361014
sg70
F67.569940702041606
sg71
F21.757534776739675
sg72
F19.1403898399622
sg73
F49.672524521218719
sa(dp364
g3
F50
sS'i'
I6
sg4
(lp365
I1500
aI1700
asg6
F1600
sg7
F1.7789718016314038
sg8
(dp366
S'Adpa2_Bs_errhi'
p367
F0.014749883293994154
sS'dpe_Bs'
p368
F0
sS'y_th1_Bs'
p369
F3.5260960418170839e-07
sS'fpax_Bs'
p370
F0.30269811455388995
sS'Adpa2_Bs'
p371
F0.00036372642621057549
sS'dd0_Bs'
p372
F-7.7843586154813238e-07
sS'Adpa2_Bs_errlo'
p373
F0
sS'c3_th1_Bs'
p374
F-1.4998723579822406
sS'dd0_Bs_errsim'
p375
F3.862861533960074
sS'fpax_Bs_errsim'
p376
F0.15872942304844279
sS'ddpa_Bs_errhi'
p377
F2.3278589929368803
sS'y_th2_Bs'
p378
F0.43995561140810185
sS'dpa_Bs_errhi'
p379
F0
sS'Adpe2_Bs'
p380
F0.017365204529436962
sS'c1_th1_Bs'
p381
F0.30999847271483827
sS'c2_th2_Bs'
p382
F-0.099364719696860559
sS'c3_th2_Bs'
p383
F-1.4999985734795303
sg27
F0.051958892394472524
sS'fpax_Bs_errhi'
p384
F0.18909089982573948
sS'Ad02_Bs_errlo'
p385
F-1.881858582511442e-05
sg30
F-0.051958892394472524
sS'dpa_Bs'
p386
F-0.022058618981835032
sS'Ad02_Bs_errhi'
p387
F1.881858582511442e-05
sS'c1_th2_Bs'
p388
F0.006496454424935294
sS'c4_th1_Bs'
p389
F-0.30171047102064541
sS'Ap2_Bs'
p390
F0.59270303044729533
sS'ds_Bs'
p391
F2.5333873985062612
sS'dd0_Bs_errlo'
p392
F-3.862861533960074
sS'fpax_Bs_errlo'
p393
F-0.15848005796248138
sS'fL_Bs_errlo'
p394
F-0.10127834878917565
sS'fL_Bs_errhi'
p395
F0.091110671989101319
sS'ds_Bs_errlo'
p396
F-0.29461309479458325
sS'Ad02_Bs_errsim'
p397
F1.881858582511442e-05
sS'c2_th1_Bs'
p398
F-0.40673067274290275
sg44
F0.051958892394472524
sS'Adpe2_Bs_errsim'
p399
F0.023024422147350454
sS'ddpe_Bs_errlo'
p400
F0
sS'ddpa_Bs'
p401
F-0.76884393728493272
sS'dpa_Bs_errsim'
p402
F1.210521851224867
sS'ddpe_Bs_errhi'
p403
F1.144398534757546
sS'Ad02_Bs'
p404
F4.4853010194856324e-13
sS'ddpe_Bs'
p405
F-2.3150216732070392
sS'Ap2_Bs_errlo'
p406
F-0.11397393771342715
sg53
F0.089721678434576402
sS'Adpa2_Bs_errsim'
p407
F0.006599802923899889
sS'c4_th2_Bs'
p408
F-0.49999980263008242
sS'ddpa_Bs_errlo'
p409
F-2.3278589929368803
sS'Ap2_Bs_errhi'
p410
F0.10649896693541566
sS'ddpe_Bs_errsim'
p411
F0.84188079162837848
sS'dpa_Bs_errlo'
p412
F-1.6195549167477834
sS'Adpe2_Bs_errlo'
p413
F-0.015785878040284588
sS'ddpa_Bs_errsim'
p414
F2.3278589929368803
sS'fL_Bs'
p415
F0.70359353388505141
sS'dd0_Bs_errhi'
p416
F3.862861533960074
sS'ds_Bs_errsim'
p417
F0.29373662282534019
sS'fL_Bs_errsim'
p418
F0.091007804710645734
sS'Ap2_Bs_errsim'
p419
F0.10554535375462415
sS'ds_Bs_errhi'
p420
F0.42231692754799466
sS'Adpe2_Bs_errhi'
p421
F0.031836711037796075
ssg69
F9.3272521631540428
sg70
F28.828034856149035
sg71
F43.860024253099851
sg72
F8.9542455345407408
sg73
F1.311940890751109
sa.