cnumpy.core.multiarray
_reconstruct
p0
(cnumpy
ndarray
p1
(I0
tp2
S'b'
p3
tp4
Rp5
(I1
(I1
I2
tp6
cnumpy
dtype
p7
(S'i8'
p8
I0
I1
tp9
Rp10
(I3
S'<'
p11
NNNI-1
I-1
I0
tp12
bI00
S'\x88\x90\x02\x00\x00\x00\x00\x00\x9e\x91\x02\x00\x00\x00\x00\x00'
p13
tp14
b.cnumpy.core.multiarray
_reconstruct
p0
(cnumpy
ndarray
p1
(I0
tp2
S'b'
p3
tp4
Rp5
(I1
(I1
tp6
cnumpy
dtype
p7
(S'i8'
p8
I0
I1
tp9
Rp10
(I3
S'<'
p11
NNNI-1
I-1
I0
tp12
bI00
S'd%\t\x00\x00\x00\x00\x00'
p13
tp14
b.