ccopy_reg
_reconstructor
p1
(csympy.core.add
Add
p2
c__builtin__
object
p3
NtRp4
(dp5
S'_a_inprogress'
p6
(lp7
sS'_mhash'
p8
NsS'_assume_type_keys'
p9
NsS'_args'
p10
(g1
(csympy.core.mul
Mul
p11
g3
NtRp12
(dp13
g6
(lp14
sg8
I-8881932774798697537
sg9
Nsg10
(g1
(csympy.core.numbers
Float
p15
g3
NtRp16
((I0
S'a66ede0d8f243L'
I-47
I52
t(dp17
S'_prec'
p18
I53
sg6
(lp19
sg8
I4976197445532179556
sg9
Nsg10
(tsS'_assumptions'
p20
(dp21
S'real'
p22
I01
sS'even'
p23
I00
sS'comparable'
p24
I01
sS'irrational'
p25
I00
sS'nonpositive'
p26
I00
sS'composite'
p27
I00
sS'unbounded'
p28
I00
sS'negative'
p29
I00
sS'zero'
p30
I00
sS'bounded'
p31
I01
sS'integer'
p32
I00
sS'imaginary'
p33
I00
sS'odd'
p34
I00
sS'nonzero'
p35
I01
sS'commutative'
p36
I01
sS'prime'
p37
I00
sS'noninteger'
p38
I01
sS'complex'
p39
I01
sS'nonnegative'
p40
I01
sS'infinitesimal'
p41
I00
sS'positive'
p42
I01
sS'finite'
p43
I01
sstbg1
(csympy.core.power
Pow
p44
g3
NtRp45
(dp46
g6
(lp47
sg9
Nsg10
(g1
(csympy.core.symbol
Symbol
p48
g3
NtRp49
(dp50
g6
(lp51
sS'name'
p52
S'A_S_mod'
p53
sg9
c__builtin__
frozenset
p54
((lp55
S'real'
p56
aS'nonzero'
p57
aS'commutative'
p58
ag26
aS'positive'
p59
aS'negative'
p60
ag40
aS'zero'
p61
ag39
aS'imaginary'
p62
atRp63
sg10
(tsg20
(dp64
g56
I01
sg57
I01
sS'comparable'
p65
I00
sg58
I01
sg26
I00
sg59
I01
sg60
I00
sg40
I01
sg61
I00
sg39
I01
sS'bounded'
p66
NsS'integer'
p67
Nsg62
I00
sS'irrational'
p68
NssS'is_commutative'
p69
I01
sg8
I3252498464732202083
sbg1
(csympy.core.numbers
Integer
p70
g3
NtRp71
(dp72
S'q'
I1
sS'p'
I2
sg6
(lp73
sg8
I6250422013836517545
sg9
Nsg10
(tsg20
(dp74
S'real'
p75
I01
sg57
I01
sg24
I01
sg36
I01
sg26
I00
sS'even'
p76
I01
sg28
I00
sS'noninteger'
p77
I00
sg39
I01
sg40
I01
sS'zero'
p78
I00
sg41
I00
sg31
I01
sg60
I00
sS'rational'
p79
I01
sg59
I01
sS'integer'
p80
I01
sg33
I00
sg43
I01
sg34
I00
sS'irrational'
p81
I00
ssbtp82
sg20
(dp83
g56
I01
sg57
I01
sS'comparable'
p84
I00
sg58
I01
sg26
I00
sg59
I01
sg60
I00
sg40
I01
sg61
I00
sg39
I01
sg66
Nsg62
I00
ssg69
I01
sg8
I8251370812422118668
sbg1
(g2
g3
NtRp85
(dp86
g6
(lp87
sg8
I2311683947684257183
sg9
Nsg10
(g1
(g11
g3
NtRp88
(dp89
g6
(lp90
sg8
I-7533174469913870353
sg9
Nsg10
(g71
g45
g1
(csympy.functions.elementary.hyperbolic
cosh
p91
g3
NtRp92
(dp93
g9
Nsg10
(g1
(g11
g3
NtRp94
(dp95
g6
(lp96
sg8
I2471729134988919702
sg9
Nsg10
(g1
(csympy.core.numbers
Half
p97
g3
NtRp98
(dp99
S'q'
I2
sS'p'
I1
sg6
(lp100
sg9
Nsg8
I-5026320711726984031
sg10
(tsg20
(dp101
g75
I01
sg23
I00
sg24
I01
sg81
I00
sg26
I00
sg27
I00
sg28
I00
sg60
I00
sg30
I00
sg31
I01
sS'integer'
p102
I00
sg33
I00
sg34
I00
sg35
I01
sg36
I01
sg37
I00
sg38
I01
sg39
I01
sg40
I01
sg41
I00
sg79
I01
sg59
I01
sg43
I01
ssbg1
(g48
g3
NtRp103
(dp104
g6
(lp105
sg52
S't'
sg9
g54
((lp106
g56
ag57
ag58
ag26
ag59
ag60
ag40
ag61
ag39
ag62
atRp107
sg10
(tsg20
(dp108
g56
I01
sg57
I01
sg65
I00
sg58
I01
sg26
I00
sg59
I01
sg60
I00
sg40
I01
sg61
I00
sg39
I01
sg62
I00
ssg69
S't'
sg8
I-3152537381156997509
sbg1
(cUrania.SympyBasic
USymbol
p109
g3
NtRp110
(dp111
g6
(lp112
sg52
S'DG'
p113
sg9
g54
((lp114
S'real'
p115
ag33
ag39
ag36
atRp116
sg10
(tsg20
(dp117
g115
I01
sg33
I00
sg65
I00
sg39
I01
sg36
I01
ssg8
I3001674312114001224
sg69
S'\\Delta\\Gamma'
p118
sbtp119
sg20
(dp120
sg69
I01
sbtp121
sg6
(lp122
sg20
(dp123
sg8
I-768825475810097342
sbtp124
sg20
g120
sg69
I01
sbg1
(g11
g3
NtRp125
(dp126
g6
(lp127
sg8
I-1552204443902093524
sg9
Nsg10
(g1
(g70
g3
NtRp128
(dp129
S'q'
I1
sS'p'
I-2
sg6
(lp130
sg8
I-6250424536232650227
sg9
Nsg10
(tsg20
(dp131
S'nonpositive'
p132
I01
sg28
I00
sg78
I00
sg34
I00
sg57
I01
sg36
I01
sg59
I00
sg77
I00
sS'negative'
p133
I01
sg39
I01
sg79
I01
sg43
I01
sg75
I01
sg76
I01
sg24
I01
sg81
I00
sg27
I00
sg31
I01
sg80
I01
sg33
I00
sg37
I00
sS'nonnegative'
p134
I00
sg41
I00
ssbg45
g1
(csympy.functions.elementary.trigonometric
cos
p135
g3
NtRp136
(dp137
g9
Nsg10
(g1
(g109
g3
NtRp138
(dp139
g6
(lp140
sg52
S'phi_S'
p141
sg9
g54
((lp142
g115
ag33
ag39
ag36
atRp143
sg10
(tsg20
(dp144
g115
I01
sg33
I00
sg65
I00
sg39
I01
sg36
I01
ssg8
I-6282709264897652615
sg69
S'\\Phi_S'
p145
sbtp146
sg6
(lp147
sg20
(dp148
g115
I01
sg84
I00
sg36
I01
sS'nonpositive'
p149
Nsg59
Nsg29
NsS'nonnegative'
p150
Nsg39
I01
sg66
I01
sg28
I00
sg33
I00
ssg8
I3768683459244969142
sbg1
(csympy.functions.elementary.hyperbolic
sinh
p151
g3
NtRp152
(dp153
g9
Nsg10
(g94
tp154
sg6
(lp155
sg20
(dp156
sg8
I4593994924869938727
sbtp157
sg20
g120
sg69
I01
sbg1
(g11
g3
NtRp158
(dp159
g6
(lp160
sg8
I-35643187423105643
sg9
Nsg10
(g71
g45
g1
(csympy.functions.elementary.trigonometric
sin
p161
g3
NtRp162
(dp163
g9
Nsg10
(g1
(g11
g3
NtRp164
(dp165
g6
(lp166
sg8
I8169369351272488329
sg9
Nsg10
(g103
g1
(g109
g3
NtRp167
(dp168
g6
(lp169
sg52
S'DM'
p170
sg9
g54
((lp171
g56
ag57
ag58
ag26
ag59
ag60
ag40
ag61
ag39
ag62
atRp172
sg10
(tsg20
(dp173
g56
I01
sg57
I01
sg65
I00
sg58
I01
sg26
I00
sg59
I01
sg60
I00
sg40
I01
sg61
I00
sg39
I01
sg62
I00
ssg8
I-2844416415428910570
sg69
S'\\DeltaM'
p174
sbtp175
sg20
(dp176
g84
I00
ssg69
I01
sbtp177
sg6
(lp178
sg20
(dp179
sg8
I-8877428783671495767
sbg1
(g161
g3
NtRp180
(dp181
g9
Nsg10
(g138
tp182
sg6
(lp183
sg20
(dp184
g115
I01
sg84
I00
sg36
I01
sg149
Nsg59
Nsg29
Nsg150
Nsg39
I01
sg66
I01
sg28
I00
sg33
I00
ssg8
I-4875741517638720039
sbtp185
sg20
g120
sg69
I01
sbtp186
sg20
(dp187
sg69
I01
sbg1
(csympy.functions.elementary.exponential
exp
p188
g3
NtRp189
(dp190
g10
(g1
(g11
g3
NtRp191
(dp192
g6
(lp193
sg8
I-1850087232827910743
sg9
Nsg10
(g1
(csympy.core.numbers
NegativeOne
p194
g3
NtRp195
(dp196
S'q'
I1
sS'p'
I-1
sg6
(lp197
sg8
I7661115593229879962
sg9
Nsg10
(tsg20
(dp198
g132
I01
sg28
I00
sg78
I00
sg34
I01
sg57
I01
sg36
I01
sg59
I00
sg77
I00
sg133
I01
sg39
I01
sg79
I01
sg43
I01
sg75
I01
sS'even'
p199
I00
sg24
I01
sg81
I00
sg27
I00
sg31
I01
sg80
I01
sg33
I00
sg37
I00
sg134
I00
sg41
I00
ssbg103
g1
(g109
g3
NtRp200
(dp201
g6
(lp202
sg52
S'G'
sg9
g54
((lp203
g56
ag57
ag58
ag26
ag59
ag60
ag40
ag61
ag39
ag62
atRp204
sg10
(tsg20
(dp205
g56
I01
sg57
I01
sg65
I00
sg58
I01
sg26
I00
sg59
I01
sg60
I00
sg40
I01
sg61
I00
sg39
I01
sg62
I00
ssg8
I-7823784118570849576
sg69
S'\\Gamma'
p206
sbtp207
sg20
g120
sg69
I01
sbtp208
sg6
(lp209
sg8
I4780154983835249234
sg20
(dp210
sg9
Nsbtp211
sg20
g120
sg69
I01
sbg1
(g11
g3
NtRp212
(dp213
g6
(lp214
sg8
I-8735878133101273557
sg9
Nsg10
(g1
(g15
g3
NtRp215
((I0
S'159375caede40bL'
I-56
I53
t(dp216
g18
I53
sg6
(lp217
sg8
I-901218044373294640
sg9
Nsg10
(tsg20
(dp218
g22
I01
sg23
I00
sg24
I01
sg25
I00
sg26
I00
sg27
I00
sg28
I00
sg29
I00
sg30
I00
sg31
I01
sg32
I00
sg33
I00
sg34
I00
sg35
I01
sg36
I01
sg37
I00
sg38
I01
sg39
I01
sg40
I01
sg41
I00
sg42
I01
sg43
I01
sstbg1
(g48
g3
NtRp219
(dp220
g6
(lp221
sg52
S'A_0_mod'
p222
sg9
g54
((lp223
g56
ag57
ag58
ag26
ag59
ag60
ag40
ag61
ag39
ag62
atRp224
sg10
(tsg20
(dp225
g56
I01
sg57
I01
sg65
I00
sg58
I01
sg26
I00
sg59
I01
sg60
I00
sg40
I01
sg61
I00
sg39
I01
sg66
Nsg67
Nsg62
I00
sg68
Nssg69
I01
sg8
I8560655699889273660
sbg1
(g48
g3
NtRp226
(dp227
g6
(lp228
sg52
S'A_pe_mod'
p229
sg9
g54
((lp230
g56
ag57
ag58
ag26
ag59
ag60
ag40
ag61
ag39
ag62
atRp231
sg10
(tsg20
(dp232
g56
I01
sg57
I01
sg65
I00
sg58
I01
sg26
I00
sg59
I01
sg60
I00
sg40
I01
sg61
I00
sg39
I01
sg66
Nsg67
Nsg62
I00
sg68
Nssg69
I01
sg8
I-3320075899761753934
sbg1
(g2
g3
NtRp233
(dp234
g6
(lp235
sg8
I2787310108800253714
sg9
Nsg10
(g1
(g11
g3
NtRp236
(dp237
g6
(lp238
sg8
I-8908428072138356946
sg9
Nsg10
(g219
g226
g1
(g2
g3
NtRp239
(dp240
g6
(lp241
sg8
I1974455331861416293
sg9
Nsg10
(g1
(g11
g3
NtRp242
(dp243
g6
(lp244
sg8
I-8554144454548483118
sg9
Nsg10
(g128
g1
(g135
g3
NtRp245
(dp246
g9
Nsg10
(g1
(g48
g3
NtRp247
(dp248
g6
(lp249
sg52
S'delta_pe'
p250
sg9
g54
((lp251
g115
ag33
ag39
ag36
atRp252
sg10
(tsg20
(dp253
g115
I01
sg65
I00
sg36
I01
sg59
Nsg39
I01
sg67
Nsg33
I00
sg68
Nssg69
I01
sg8
I8770729286534471027
sbtp254
sg6
(lp255
sg20
(dp256
g115
I01
sg84
I00
sg36
I01
sg149
Nsg59
Nsg29
Nsg150
Nsg39
I01
sg66
I01
sg28
I00
sg33
I00
ssg8
I-4731014868831868572
sbg1
(g161
g3
NtRp257
(dp258
g9
Nsg10
(g1
(g109
g3
NtRp259
(dp260
g6
(lp261
sg52
S'phi_0'
p262
sg9
g54
((lp263
g115
ag33
ag39
ag36
atRp264
sg10
(tsg20
(dp265
g115
I01
sg65
I00
sg36
I01
sg59
Nsg39
I01
sg33
I00
ssg8
I6808470636316824775
sg69
S'\\Phi_0'
p266
sbtp267
sg6
(lp268
sg20
(dp269
g115
I01
sg84
I00
sg36
I01
sg149
Nsg28
I00
sg29
Nsg150
Nsg39
I01
sg66
I01
sg59
Nsg33
I00
ssg8
I9015787966093520675
sbtp270
sg20
(dp271
g84
I00
ssg69
I01
sbg1
(g161
g3
NtRp272
(dp273
g9
Nsg10
(g1
(g2
g3
NtRp274
(dp275
g6
(lp276
sg8
I4027114722365692163
sg9
Nsg10
(g1
(g11
g3
NtRp277
(dp278
g6
(lp279
sg8
I-3326555492124600657
sg9
Nsg10
(g195
g247
tp280
sg20
(dp281
g115
I01
sg33
I00
sg84
I00
sg39
I01
sg36
I01
ssg69
I01
sbg259
tp282
sg20
(dp283
g115
I01
sg33
I00
sg84
I00
sg39
I01
sg36
I01
ssg69
I01
sbtp284
sg6
(lp285
sg20
(dp286
g115
I01
sg84
I00
sg36
I01
sg149
Nsg59
Nsg29
Nsg150
Nsg39
I01
sg66
I01
sg28
I00
sg33
I00
ssg8
I-3693311176099059241
sbg1
(g11
g3
NtRp287
(dp288
g6
(lp289
sg8
I2812977762270826473
sg9
Nsg10
(g195
g1
(g161
g3
NtRp290
(dp291
g9
Nsg10
(g1
(g2
g3
NtRp292
(dp293
g6
(lp294
sg8
I6404143776064118809
sg9
Nsg10
(g1
(g11
g3
NtRp295
(dp296
g6
(lp297
sg8
I8262746043143516765
sg9
Nsg10
(g195
g1
(g109
g3
NtRp298
(dp299
g6
(lp300
sg52
S'phi_pe'
p301
sg9
g54
((lp302
g115
ag33
ag39
ag36
atRp303
sg10
(tsg20
(dp304
g115
I01
sg65
I00
sg36
I01
sg59
Nsg39
I01
sg33
I00
ssg8
I2704603242581017557
sg69
S'\\Phi_pe'
p305
sbtp306
sg20
(dp307
g115
I01
sg33
I00
sg84
I00
sg39
I01
sg36
I01
ssg69
I01
sbg247
tp308
sg20
(dp309
g115
I01
sg33
I00
sg84
I00
sg39
I01
sg36
I01
ssg69
I01
sbtp310
sg6
(lp311
sg20
(dp312
g115
I01
sg84
I00
sg36
I01
sg149
Nsg28
I00
sg29
Nsg150
Nsg39
I01
sg66
I01
sg59
Nsg33
I00
ssg8
I4872962426709324537
sbtp313
sg20
(dp314
g115
I01
sg84
I00
sg36
I01
sg149
Nsg28
I00
sg29
Nsg150
Nsg39
I01
sg66
I01
sg59
NsS'imaginary'
p315
I00
ssg69
I01
sbtp316
sg20
(dp317
g84
I00
ssg69
I01
sbg152
tp318
sg20
g120
sg69
I01
sbg1
(g11
g3
NtRp319
(dp320
g6
(lp321
sg8
I-2719653381130585220
sg9
Nsg10
(g219
g226
g1
(g2
g3
NtRp322
(dp323
g6
(lp324
sg8
I-8443987526155219514
sg9
Nsg10
(g1
(g161
g3
NtRp325
(dp326
g9
Nsg10
(g247
tp327
sg6
(lp328
sg20
(dp329
g115
I01
sg84
I00
sg36
I01
sg149
Nsg28
I00
sg29
Nsg150
Nsg39
I01
sg66
I01
sg59
Nsg33
I00
ssg8
I-8681393235736206713
sbg1
(g11
g3
NtRp330
(dp331
g6
(lp332
sg8
I-3738586470278130173
sg9
Nsg10
(g1
(g135
g3
NtRp333
(dp334
g9
Nsg10
(g292
tp335
sg6
(lp336
sg20
(dp337
g115
I01
sg84
I00
sg36
I01
sg149
Nsg28
I00
sg29
Nsg150
Nsg39
I01
sg66
I01
sg59
Nsg33
I00
ssg8
I-8928740241656047530
sbg257
tp338
sg20
(dp339
g84
I00
ssg69
I01
sbg1
(g11
g3
NtRp340
(dp341
g6
(lp342
sg8
I-31906943561637921
sg9
Nsg10
(g1
(g135
g3
NtRp343
(dp344
g9
Nsg10
(g259
tp345
sg6
(lp346
sg20
(dp347
g115
I01
sg84
I00
sg36
I01
sg149
Nsg28
I00
sg29
Nsg150
Nsg39
I01
sg66
I01
sg59
Nsg33
I00
ssg8
I5471883669681095424
sbg290
tp348
sg20
(dp349
g84
I00
ssg69
I01
sbtp350
sg20
(dp351
g84
I00
ssg69
I01
sbg92
tp352
sg20
g120
sg69
I01
sbg1
(g11
g3
NtRp353
(dp354
g6
(lp355
sg8
I3730411592860245201
sg9
Nsg10
(g219
g226
g1
(g2
g3
NtRp356
(dp357
g6
(lp358
sg8
I-4435644664173520320
sg9
Nsg10
(g333
g1
(g11
g3
NtRp359
(dp360
g6
(lp361
sg8
I-8706729143453783311
sg9
Nsg10
(g71
g325
g257
tp362
sg20
(dp363
g84
I00
ssg69
I01
sbg1
(g11
g3
NtRp364
(dp365
g6
(lp366
sg8
I8836127958705808246
sg9
Nsg10
(g195
g1
(g135
g3
NtRp367
(dp368
g9
Nsg10
(g274
tp369
sg6
(lp370
sg20
(dp371
g115
I01
sg84
I00
sg36
I01
sg149
Nsg28
I00
sg29
Nsg150
Nsg39
I01
sg66
I01
sg59
Nsg33
I00
ssg8
I-1218079028779679948
sbtp372
sg20
(dp373
g115
I01
sg84
I00
sg36
I01
sg149
Nsg28
I00
sg29
Nsg150
Nsg39
I01
sg66
I01
sg59
Nsg315
I00
ssg69
I01
sbtp374
sg20
(dp375
g84
I00
ssg69
I01
sbg162
tp376
sg20
g120
sg69
I01
sbg1
(g11
g3
NtRp377
(dp378
g6
(lp379
sg8
I5579888473031487528
sg9
Nsg10
(g219
g226
g1
(g2
g3
NtRp380
(dp381
g6
(lp382
sg8
I5728098548322969902
sg9
Nsg10
(g325
g1
(g11
g3
NtRp383
(dp384
g6
(lp385
sg8
I-3478144827272654773
sg9
Nsg10
(g195
g333
g257
tp386
sg20
(dp387
g84
I00
ssg69
I01
sbg1
(g11
g3
NtRp388
(dp389
g6
(lp390
sg8
I7687458320660976079
sg9
Nsg10
(g195
g343
g290
tp391
sg20
(dp392
g84
I00
ssg69
I01
sbtp393
sg20
(dp394
g84
I00
ssg69
I01
sbg1
(g135
g3
NtRp395
(dp396
g9
Nsg10
(g164
tp397
sg6
(lp398
sg20
(dp399
sg8
I1824400633285092870
sbtp400
sg20
g120
sg69
I01
sbtp401
sg20
g187
sg69
I01
sbg189
g325
tp402
sg20
g120
sg69
I01
sbg1
(g11
g3
NtRp403
(dp404
g6
(lp405
sg8
I-4537679410095637116
sg9
Nsg10
(g1
(g15
g3
NtRp406
((I1
S'1857b3b600383bL'
I-51
I53
t(dp407
g18
I53
sg6
(lp408
sg8
I-4085194682210492590
sg9
Nsg10
(tsg20
(dp409
g22
I01
sg23
I00
sg24
I01
sg25
I00
sg132
I01
sg27
I00
sg28
I00
sg29
I01
sg30
I00
sg31
I01
sg32
I00
sg33
I00
sg34
I00
sg35
I01
sg36
I01
sg37
I00
sg38
I01
sg39
I01
sg134
I00
sg41
I00
sS'positive'
p410
I00
sg43
I01
sstbg219
g1
(g48
g3
NtRp411
(dp412
g6
(lp413
sg52
S'A_pa_mod'
p414
sg9
g54
((lp415
g56
ag57
ag58
ag26
ag59
ag60
ag40
ag61
ag39
ag62
atRp416
sg10
(tsg20
(dp417
g56
I01
sg57
I01
sg65
I00
sg58
I01
sg26
I00
sg59
I01
sg60
I00
sg40
I01
sg61
I00
sg39
I01
sg66
Nsg67
Nsg62
I00
sg68
Nssg69
I01
sg8
I-1418913568875714266
sbg1
(g2
g3
NtRp418
(dp419
g6
(lp420
sg8
I-4269245854040195370
sg9
Nsg10
(g1
(g11
g3
NtRp421
(dp422
g6
(lp423
sg8
I-8410622613556011868
sg9
Nsg10
(g219
g411
g1
(g2
g3
NtRp424
(dp425
g6
(lp426
sg8
I-2995836396068076683
sg9
Nsg10
(g1
(g161
g3
NtRp427
(dp428
g9
Nsg10
(g1
(g2
g3
NtRp429
(dp430
g6
(lp431
sg8
I7308672129072185071
sg9
Nsg10
(g1
(g48
g3
NtRp432
(dp433
g6
(lp434
sg52
S'delta_pa'
p435
sg9
g54
((lp436
g115
ag33
ag39
ag36
atRp437
sg10
(tsg20
(dp438
g115
I01
sg65
I00
sg36
I01
sg59
Nsg39
I01
sg67
Nsg33
I00
sg68
Nssg69
I01
sg8
I-6650190805280508945
sbg1
(g11
g3
NtRp439
(dp440
g6
(lp441
sg8
I-1311345262456576037
sg9
Nsg10
(g195
g259
tp442
sg20
(dp443
g115
I01
sg33
I00
sg84
I00
sg39
I01
sg36
I01
ssg69
I01
sbtp444
sg20
(dp445
g115
I01
sg33
I00
sg84
I00
sg39
I01
sg36
I01
ssg69
I01
sbtp446
sg6
(lp447
sg20
(dp448
g115
I01
sg84
I00
sg36
I01
sg149
Nsg59
Nsg29
Nsg150
Nsg39
I01
sg66
I01
sg28
I00
sg33
I00
ssg8
I-7357766150074377253
sbg1
(g161
g3
NtRp449
(dp450
g9
Nsg10
(g1
(g2
g3
NtRp451
(dp452
g6
(lp453
sg8
I5835798497188179433
sg9
Nsg10
(g1
(g109
g3
NtRp454
(dp455
g6
(lp456
sg52
S'phi_pa'
p457
sg9
g54
((lp458
g115
ag33
ag39
ag36
atRp459
sg10
(tsg20
(dp460
g115
I01
sg65
I00
sg36
I01
sg59
Nsg39
I01
sg33
I00
ssg8
I-5998936713640044739
sg69
S'\\Phi_pa'
p461
sbg1
(g11
g3
NtRp462
(dp463
g6
(lp464
sg8
I-2897990800298099325
sg9
Nsg10
(g195
g432
tp465
sg20
(dp466
g115
I01
sg33
I00
sg84
I00
sg39
I01
sg36
I01
ssg69
I01
sbtp467
sg20
(dp468
g115
I01
sg33
I00
sg84
I00
sg39
I01
sg36
I01
ssg69
I01
sbtp469
sg6
(lp470
sg20
(dp471
g115
I01
sg84
I00
sg36
I01
sg149
Nsg28
I00
sg29
Nsg150
Nsg39
I01
sg66
I01
sg59
Nsg33
I00
ssg8
I-6944259453400924535
sbg1
(g11
g3
NtRp472
(dp473
g6
(lp474
sg8
I4656372841303005898
sg9
Nsg10
(g71
g1
(g135
g3
NtRp475
(dp476
g9
Nsg10
(g432
tp477
sg6
(lp478
sg20
(dp479
g115
I01
sg84
I00
sg36
I01
sg149
Nsg59
Nsg29
Nsg150
Nsg39
I01
sg66
I01
sg28
I00
sg33
I00
ssg8
I-7852299139827892040
sbg257
tp480
sg20
(dp481
g84
I00
ssg69
I01
sbtp482
sg20
(dp483
g84
I00
ssg69
I01
sbg162
tp484
sg20
g120
sg69
I01
sbg1
(g11
g3
NtRp485
(dp486
g6
(lp487
sg8
I-2962997524152755325
sg9
Nsg10
(g219
g411
g1
(g2
g3
NtRp488
(dp489
g6
(lp490
sg8
I-3290872358100109299
sg9
Nsg10
(g475
g1
(g11
g3
NtRp491
(dp492
g6
(lp493
sg8
I-5990643814802136960
sg9
Nsg10
(g195
g1
(g135
g3
NtRp494
(dp495
g9
Nsg10
(g451
tp496
sg6
(lp497
sg20
(dp498
g115
I01
sg84
I00
sg36
I01
sg149
Nsg28
I00
sg29
Nsg150
Nsg39
I01
sg66
I01
sg59
Nsg33
I00
ssg8
I-7470762518258138522
sbg343
tp499
sg20
(dp500
g84
I00
ssg69
I01
sbg1
(g11
g3
NtRp501
(dp502
g6
(lp503
sg8
I6938588450210456080
sg9
Nsg10
(g195
g449
g257
tp504
sg20
(dp505
g84
I00
ssg69
I01
sbtp506
sg20
(dp507
g84
I00
ssg69
I01
sbg395
tp508
sg20
g120
sg69
I01
sbg1
(g11
g3
NtRp509
(dp510
g6
(lp511
sg8
I2916985231279884961
sg9
Nsg10
(g219
g411
g1
(g2
g3
NtRp512
(dp513
g6
(lp514
sg8
I-1149008882524663734
sg9
Nsg10
(g1
(g11
g3
NtRp515
(dp516
g6
(lp517
sg8
I-6488679001096866910
sg9
Nsg10
(g195
g1
(g135
g3
NtRp518
(dp519
g9
Nsg10
(g429
tp520
sg6
(lp521
sg20
(dp522
g115
I01
sg84
I00
sg36
I01
sg149
Nsg59
Nsg29
Nsg150
Nsg39
I01
sg66
I01
sg28
I00
sg33
I00
ssg8
I-6233315007587008584
sbtp523
sg20
(dp524
g115
I01
sg84
I00
sg36
I01
sg149
Nsg59
Nsg29
Nsg150
Nsg39
I01
sg66
I01
sg28
I00
sg315
I00
ssg69
I01
sbg1
(g11
g3
NtRp525
(dp526
g6
(lp527
sg8
I-5686607356699737187
sg9
Nsg10
(g71
g1
(g161
g3
NtRp528
(dp529
g9
Nsg10
(g432
tp530
sg6
(lp531
sg20
(dp532
g115
I01
sg84
I00
sg36
I01
sg149
Nsg28
I00
sg29
Nsg150
Nsg39
I01
sg66
I01
sg59
Nsg33
I00
ssg8
I3552502690060692699
sbg257
tp533
sg20
(dp534
g84
I00
ssg69
I01
sbg1
(g11
g3
NtRp535
(dp536
g6
(lp537
sg8
I-4752113053672384204
sg9
Nsg10
(g195
g494
tp538
sg20
(dp539
g115
I01
sg84
I00
sg36
I01
sg149
Nsg28
I00
sg29
Nsg150
Nsg39
I01
sg66
I01
sg59
Nsg315
I00
ssg69
I01
sbtp540
sg20
(dp541
g84
I00
ssg69
I01
sbg152
tp542
sg20
g120
sg69
I01
sbg1
(g11
g3
NtRp543
(dp544
g6
(lp545
sg8
I6586975398385195649
sg9
Nsg10
(g219
g411
g1
(g2
g3
NtRp546
(dp547
g6
(lp548
sg8
I-2775411335616649261
sg9
Nsg10
(g475
g1
(g11
g3
NtRp549
(dp550
g6
(lp551
sg8
I5036518913357940040
sg9
Nsg10
(g449
g257
tp552
sg20
(dp553
g84
I00
ssg69
I01
sbg1
(g11
g3
NtRp554
(dp555
g6
(lp556
sg8
I6532916036265573566
sg9
Nsg10
(g494
g343
tp557
sg20
(dp558
g84
I00
ssg69
I01
sbtp559
sg20
(dp560
g84
I00
ssg69
I01
sbg92
tp561
sg20
g120
sg69
I01
sbtp562
sg20
g187
sg69
I01
sbg475
g189
tp563
sg20
g120
sg69
I01
sbg1
(g11
g3
NtRp564
(dp565
g6
(lp566
sg8
I-1589456132971566930
sg9
Nsg10
(g1
(g15
g3
NtRp567
((I1
S'1a38d19780cf19L'
I-58
I53
t(dp568
g18
I53
sg6
(lp569
sg8
I6658694560374801739
sg9
Nsg10
(tsg20
(dp570
g22
I01
sg23
I00
sg24
I01
sg25
I00
sg132
I01
sg27
I00
sg28
I00
sg29
I01
sg30
I00
sg31
I01
sg32
I00
sg33
I00
sg34
I00
sg35
I01
sg36
I01
sg37
I00
sg38
I01
sg39
I01
sg134
I00
sg41
I00
sg410
I00
sg43
I01
sstbg49
g411
g1
(g2
g3
NtRp571
(dp572
g6
(lp573
sg8
I4405744287323779597
sg9
Nsg10
(g1
(g11
g3
NtRp574
(dp575
g6
(lp576
sg8
I-8454332143697249095
sg9
Nsg10
(g1
(g161
g3
NtRp577
(dp578
g9
Nsg10
(g1
(g48
g3
NtRp579
(dp580
g6
(lp581
sg52
S'delta_S'
p582
sg9
g54
((lp583
g115
ag33
ag39
ag36
atRp584
sg10
(tsg20
(dp585
g115
I01
sg65
I00
sg36
I01
sg59
Nsg39
I01
sg67
Nsg33
I00
sg68
Nssg69
I01
sg8
I2527457018462809534
sbtp586
sg6
(lp587
sg20
(dp588
g115
I01
sg84
I00
sg36
I01
sg149
Nsg28
I00
sg29
Nsg150
Nsg39
I01
sg66
I01
sg59
Nsg33
I00
ssg8
I3806299807926585864
sbg528
tp589
sg20
(dp590
g115
I01
sg33
I00
sg84
I00
sg39
I01
sg36
I01
ssg69
I01
sbg1
(g11
g3
NtRp591
(dp592
g6
(lp593
sg8
I-2682523062993423749
sg9
Nsg10
(g1
(g135
g3
NtRp594
(dp595
g9
Nsg10
(g579
tp596
sg6
(lp597
sg20
(dp598
g115
I01
sg84
I00
sg36
I01
sg149
Nsg59
Nsg29
Nsg150
Nsg39
I01
sg66
I01
sg28
I00
sg33
I00
ssg8
I-1567736957672041685
sbg475
tp599
sg20
(dp600
g115
I01
sg33
I00
sg84
I00
sg39
I01
sg36
I01
ssg69
I01
sbtp601
sg20
(dp602
g84
I00
ssg69
I01
sbg1
(g2
g3
NtRp603
(dp604
g6
(lp605
sg8
I7218684392654434959
sg9
Nsg10
(g1
(g11
g3
NtRp606
(dp607
g6
(lp608
sg8
I-7008019966506235173
sg9
Nsg10
(g49
g411
g1
(g2
g3
NtRp609
(dp610
g6
(lp611
sg8
I-511032044708865605
sg9
Nsg10
(g1
(g11
g3
NtRp612
(dp613
g6
(lp614
sg8
I-2036845894992755258
sg9
Nsg10
(g195
g136
g1
(g161
g3
NtRp615
(dp616
g9
Nsg10
(g1
(g2
g3
NtRp617
(dp618
g6
(lp619
sg8
I-3492198264376341392
sg9
Nsg10
(g462
g579
tp620
sg20
(dp621
g115
I01
sg33
I00
sg84
I00
sg39
I01
sg36
I01
ssg69
I01
sbtp622
sg6
(lp623
sg20
(dp624
g115
I01
sg84
I00
sg36
I01
sg149
Nsg28
I00
sg29
Nsg150
Nsg39
I01
sg66
I01
sg59
Nsg33
I00
ssg8
I-2295254822587808930
sbtp625
sg20
(dp626
g84
I00
ssg69
I01
sbg1
(g11
g3
NtRp627
(dp628
g6
(lp629
sg8
I-1004770860418086838
sg9
Nsg10
(g1
(g135
g3
NtRp630
(dp631
g9
Nsg10
(g617
tp632
sg6
(lp633
sg20
(dp634
g115
I01
sg84
I00
sg36
I01
sg149
Nsg28
I00
sg29
Nsg150
Nsg39
I01
sg66
I01
sg59
Nsg33
I00
ssg8
I-6966707213069426431
sbg180
tp635
sg20
(dp636
g84
I00
ssg69
I01
sbg1
(g11
g3
NtRp637
(dp638
g6
(lp639
sg8
I403322254273061972
sg9
Nsg10
(g1
(g135
g3
NtRp640
(dp641
g9
Nsg10
(g454
tp642
sg6
(lp643
sg20
(dp644
g115
I01
sg84
I00
sg36
I01
sg149
Nsg59
Nsg29
Nsg150
Nsg39
I01
sg66
I01
sg28
I00
sg33
I00
ssg8
I7471640168288632962
sbg615
tp645
sg20
(dp646
g84
I00
ssg69
I01
sbg1
(g11
g3
NtRp647
(dp648
g6
(lp649
sg8
I6342422317086434974
sg9
Nsg10
(g630
g1
(g161
g3
NtRp650
(dp651
g9
Nsg10
(g454
tp652
sg6
(lp653
sg20
(dp654
g115
I01
sg84
I00
sg36
I01
sg149
Nsg59
Nsg29
Nsg150
Nsg39
I01
sg66
I01
sg28
I00
sg33
I00
ssg8
I2932854127123315493
sbtp655
sg20
(dp656
g84
I00
ssg69
I01
sbtp657
sg20
(dp658
g84
I00
ssg69
I01
sbg162
tp659
sg20
g120
sg69
I01
sbg1
(g11
g3
NtRp660
(dp661
g6
(lp662
sg8
I-1966684476867952769
sg9
Nsg10
(g49
g411
g1
(g2
g3
NtRp663
(dp664
g6
(lp665
sg8
I2418072008967812292
sg9
Nsg10
(g630
g1
(g11
g3
NtRp666
(dp667
g6
(lp668
sg8
I-4485294660500511357
sg9
Nsg10
(g195
g615
g1
(g161
g3
NtRp669
(dp670
g9
Nsg10
(g1
(g2
g3
NtRp671
(dp672
g6
(lp673
sg8
I2617208142888283127
sg9
Nsg10
(g138
g1
(g11
g3
NtRp674
(dp675
g6
(lp676
sg8
I2811977234285427781
sg9
Nsg10
(g195
g454
tp677
sg20
(dp678
g115
I01
sg33
I00
sg84
I00
sg39
I01
sg36
I01
ssg69
I01
sbtp679
sg20
(dp680
g115
I01
sg33
I00
sg84
I00
sg39
I01
sg36
I01
ssg69
I01
sbtp681
sg6
(lp682
sg20
(dp683
g115
I01
sg84
I00
sg36
I01
sg149
Nsg28
I00
sg29
Nsg150
Nsg39
I01
sg66
I01
sg59
Nsg33
I00
ssg8
I-3576810532189527149
sbtp684
sg20
(dp685
g115
I01
sg84
I00
sg36
I01
sg149
Nsg28
I00
sg29
Nsg150
Nsg39
I01
sg66
I01
sg59
Nsg315
I00
ssg69
I01
sbg1
(g11
g3
NtRp686
(dp687
g6
(lp688
sg8
I2970654570032084979
sg9
Nsg10
(g195
g630
g1
(g135
g3
NtRp689
(dp690
g9
Nsg10
(g671
tp691
sg6
(lp692
sg20
(dp693
g115
I01
sg84
I00
sg36
I01
sg149
Nsg28
I00
sg29
Nsg150
Nsg39
I01
sg66
I01
sg59
Nsg33
I00
ssg8
I-8967383368189008016
sbtp694
sg20
(dp695
g115
I01
sg84
I00
sg36
I01
sg149
Nsg28
I00
sg29
Nsg150
Nsg39
I01
sg66
I01
sg59
Nsg315
I00
ssg69
I01
sbtp696
sg20
(dp697
g115
I01
sg84
I00
sg36
I01
sg59
Nsg29
Nsg150
Nsg39
I01
sg33
I00
ssg69
I01
sbg395
tp698
sg20
g120
sg69
I01
sbg1
(g11
g3
NtRp699
(dp700
g6
(lp701
sg8
I5265939308415170121
sg9
Nsg10
(g49
g411
g1
(g2
g3
NtRp702
(dp703
g6
(lp704
sg8
I-1109907251767182481
sg9
Nsg10
(g1
(g11
g3
NtRp705
(dp706
g6
(lp707
sg8
I-8236661925670130243
sg9
Nsg10
(g195
g630
g136
tp708
sg20
(dp709
g84
I00
ssg69
I01
sbg1
(g11
g3
NtRp710
(dp711
g6
(lp712
sg8
I-1457904243930391375
sg9
Nsg10
(g195
g630
g640
tp713
sg20
(dp714
g84
I00
ssg69
I01
sbg1
(g11
g3
NtRp715
(dp716
g6
(lp717
sg8
I5654556751788947769
sg9
Nsg10
(g195
g615
g180
tp718
sg20
(dp719
g84
I00
ssg69
I01
sbg1
(g11
g3
NtRp720
(dp721
g6
(lp722
sg8
I6949162153136955921
sg9
Nsg10
(g615
g650
tp723
sg20
(dp724
g84
I00
ssg69
I01
sbtp725
sg20
(dp726
g84
I00
ssg69
I01
sbg152
tp727
sg20
g120
sg69
I01
sbg1
(g11
g3
NtRp728
(dp729
g6
(lp730
sg8
I5501321916829846265
sg9
Nsg10
(g49
g411
g1
(g2
g3
NtRp731
(dp732
g6
(lp733
sg8
I-1048952870860952362
sg9
Nsg10
(g630
g1
(g11
g3
NtRp734
(dp735
g6
(lp736
sg8
I-4608672002231952533
sg9
Nsg10
(g615
g669
tp737
sg20
(dp738
g115
I01
sg84
I00
sg36
I01
sg149
Nsg28
I00
sg29
Nsg150
Nsg39
I01
sg66
I01
sg59
Nsg315
I00
ssg69
I01
sbg1
(g11
g3
NtRp739
(dp740
g6
(lp741
sg8
I-844068329443448391
sg9
Nsg10
(g630
g689
tp742
sg20
(dp743
g115
I01
sg84
I00
sg36
I01
sg149
Nsg28
I00
sg29
Nsg150
Nsg39
I01
sg66
I01
sg59
Nsg315
I00
ssg69
I01
sbtp744
sg20
(dp745
g115
I01
sg84
I00
sg36
I01
sg59
Nsg29
Nsg150
Nsg39
I01
sg33
I00
ssg69
I01
sbg92
tp746
sg20
g120
sg69
I01
sbtp747
sg20
g187
sg69
I01
sbg189
tp748
sg20
g120
sg69
I01
sbg1
(g11
g3
NtRp749
(dp750
g6
(lp751
sg8
I2536998844366212067
sg9
Nsg10
(g1
(g15
g3
NtRp752
((I0
S'e4af2dbea0dbdL'
I-55
I52
t(dp753
g18
I53
sg6
(lp754
sg8
I3366762071565622550
sg9
Nsg10
(tsg20
(dp755
g22
I01
sg23
I00
sg24
I01
sg25
I00
sg26
I00
sg27
I00
sg28
I00
sg29
I00
sg30
I00
sg31
I01
sg32
I00
sg33
I00
sg34
I00
sg35
I01
sg36
I01
sg37
I00
sg38
I01
sg39
I01
sg40
I01
sg41
I00
sg42
I01
sg43
I01
sstbg49
g226
g1
(g2
g3
NtRp756
(dp757
g6
(lp758
sg8
I-7518648273229689311
sg9
Nsg10
(g1
(g11
g3
NtRp759
(dp760
g6
(lp761
sg8
I-6066675459419246638
sg9
Nsg10
(g195
g245
g577
tp762
sg20
(dp763
g84
I00
ssg69
I01
sbg1
(g11
g3
NtRp764
(dp765
g6
(lp766
sg8
I-203977686795306046
sg9
Nsg10
(g594
g325
tp767
sg20
(dp768
g84
I00
ssg69
I01
sbtp769
sg20
(dp770
g84
I00
ssg69
I01
sbg1
(g2
g3
NtRp771
(dp772
g6
(lp773
sg8
I-8231016230756464453
sg9
Nsg10
(g1
(g11
g3
NtRp774
(dp775
g6
(lp776
sg8
I-5352771822610831061
sg9
Nsg10
(g49
g226
g1
(g2
g3
NtRp777
(dp778
g6
(lp779
sg8
I2873253428050163153
sg9
Nsg10
(g1
(g11
g3
NtRp780
(dp781
g6
(lp782
sg8
I-7246792082839972224
sg9
Nsg10
(g1
(g135
g3
NtRp783
(dp784
g9
Nsg10
(g298
tp785
sg6
(lp786
sg20
(dp787
g115
I01
sg84
I00
sg36
I01
sg149
Nsg59
Nsg29
Nsg150
Nsg39
I01
sg66
I01
sg28
I00
sg33
I00
ssg8
I1324056794318574858
sbg1
(g161
g3
NtRp788
(dp789
g9
Nsg10
(g1
(g2
g3
NtRp790
(dp791
g6
(lp792
sg8
I550786553912183204
sg9
Nsg10
(g277
g579
tp793
sg20
(dp794
g115
I01
sg33
I00
sg84
I00
sg39
I01
sg36
I01
ssg69
I01
sbtp795
sg6
(lp796
sg20
(dp797
g115
I01
sg84
I00
sg36
I01
sg149
Nsg28
I00
sg29
Nsg150
Nsg39
I01
sg66
I01
sg59
Nsg33
I00
ssg8
I4939634126944049754
sbtp798
sg20
(dp799
g84
I00
ssg69
I01
sbg1
(g11
g3
NtRp800
(dp801
g6
(lp802
sg8
I-981749515332223484
sg9
Nsg10
(g136
g788
tp803
sg20
(dp804
g84
I00
ssg69
I01
sbg1
(g11
g3
NtRp805
(dp806
g6
(lp807
sg8
I4298877421863256978
sg9
Nsg10
(g1
(g135
g3
NtRp808
(dp809
g9
Nsg10
(g790
tp810
sg6
(lp811
sg20
(dp812
g115
I01
sg84
I00
sg36
I01
sg149
Nsg28
I00
sg29
Nsg150
Nsg39
I01
sg66
I01
sg59
Nsg33
I00
ssg8
I867438428019368829
sbg1
(g161
g3
NtRp813
(dp814
g9
Nsg10
(g298
tp815
sg6
(lp816
sg20
(dp817
g115
I01
sg84
I00
sg36
I01
sg28
I00
sg29
Nsg150
Nsg39
I01
sg66
I01
sg59
Nsg33
I00
ssg8
I7303452171199553837
sbtp818
sg20
(dp819
g84
I00
ssg69
I01
sbg1
(g11
g3
NtRp820
(dp821
g6
(lp822
sg8
I6898620034954224742
sg9
Nsg10
(g195
g808
g180
tp823
sg20
(dp824
g84
I00
ssg69
I01
sbtp825
sg20
(dp826
g84
I00
ssg69
I01
sbg152
tp827
sg20
g120
sg69
I01
sbg1
(g11
g3
NtRp828
(dp829
g6
(lp830
sg8
I-5285169543187955144
sg9
Nsg10
(g49
g226
g1
(g2
g3
NtRp831
(dp832
g6
(lp833
sg8
I3951045944336782499
sg9
Nsg10
(g1
(g11
g3
NtRp834
(dp835
g6
(lp836
sg8
I-8533396620085502588
sg9
Nsg10
(g195
g808
g1
(g161
g3
NtRp837
(dp838
g9
Nsg10
(g1
(g2
g3
NtRp839
(dp840
g6
(lp841
sg8
I1295191058468115103
sg9
Nsg10
(g138
g295
tp842
sg20
(dp843
g115
I01
sg33
I00
sg84
I00
sg39
I01
sg36
I01
ssg69
I01
sbtp844
sg6
(lp845
sg20
(dp846
g115
I01
sg84
I00
sg36
I01
sg149
Nsg28
I00
sg29
Nsg150
Nsg39
I01
sg66
I01
sg59
Nsg33
I00
ssg8
I-5091691349903294773
sbtp847
sg20
(dp848
g84
I00
ssg69
I01
sbg1
(g11
g3
NtRp849
(dp850
g6
(lp851
sg8
I1477668513062102738
sg9
Nsg10
(g1
(g135
g3
NtRp852
(dp853
g9
Nsg10
(g839
tp854
sg6
(lp855
sg20
(dp856
g115
I01
sg84
I00
sg36
I01
sg149
Nsg28
I00
sg29
Nsg150
Nsg39
I01
sg66
I01
sg59
Nsg33
I00
ssg8
I3359754366718009640
sbg788
tp857
sg20
(dp858
g84
I00
ssg69
I01
sbg1
(g11
g3
NtRp859
(dp860
g6
(lp861
sg8
I7960967393010156432
sg9
Nsg10
(g195
g788
tp862
sg20
(dp863
g115
I01
sg84
I00
sg36
I01
sg149
Nsg28
I00
sg29
Nsg150
Nsg39
I01
sg66
I01
sg59
Nsg315
I00
ssg69
I01
sbtp864
sg20
(dp865
g84
I00
ssg69
I01
sbg395
tp866
sg20
g120
sg69
I01
sbg1
(g11
g3
NtRp867
(dp868
g6
(lp869
sg8
I-1219754140598529222
sg9
Nsg10
(g49
g226
g1
(g2
g3
NtRp870
(dp871
g6
(lp872
sg8
I3586772832509837061
sg9
Nsg10
(g1
(g11
g3
NtRp873
(dp874
g6
(lp875
sg8
I-3725180089355886948
sg9
Nsg10
(g808
g837
tp876
sg20
(dp877
g84
I00
ssg69
I01
sbg1
(g11
g3
NtRp878
(dp879
g6
(lp880
sg8
I-2231123404400001108
sg9
Nsg10
(g195
g852
g788
tp881
sg20
(dp882
g84
I00
ssg69
I01
sbg859
tp883
sg20
(dp884
g84
I00
ssg69
I01
sbg92
tp885
sg20
g120
sg69
I01
sbg1
(g11
g3
NtRp886
(dp887
g6
(lp888
sg8
I42694702035527689
sg9
Nsg10
(g49
g226
g1
(g2
g3
NtRp889
(dp890
g6
(lp891
sg8
I-8465801248792544907
sg9
Nsg10
(g1
(g11
g3
NtRp892
(dp893
g6
(lp894
sg8
I-3594249431165515055
sg9
Nsg10
(g195
g788
g813
tp895
sg20
(dp896
g84
I00
ssg69
I01
sbg1
(g11
g3
NtRp897
(dp898
g6
(lp899
sg8
I-2684755842204718371
sg9
Nsg10
(g195
g788
g180
tp900
sg20
(dp901
g84
I00
ssg69
I01
sbg1
(g11
g3
NtRp902
(dp903
g6
(lp904
sg8
I3228420948001598793
sg9
Nsg10
(g195
g808
g136
tp905
sg20
(dp906
g84
I00
ssg69
I01
sbg1
(g11
g3
NtRp907
(dp908
g6
(lp909
sg8
I5298879969141194211
sg9
Nsg10
(g808
g783
tp910
sg20
(dp911
g84
I00
ssg69
I01
sbtp912
sg20
(dp913
g84
I00
ssg69
I01
sbg162
tp914
sg20
g120
sg69
I01
sbtp915
sg20
g187
sg69
I01
sbg189
tp916
sg20
g120
sg69
I01
sbg1
(g11
g3
NtRp917
(dp918
g6
(lp919
sg8
I2592545277391479850
sg9
Nsg10
(g1
(g15
g3
NtRp920
((I0
S'1d4aa45f30a2afL'
I-49
I53
t(dp921
g18
I53
sg6
(lp922
sg8
I-4623419522846273473
sg9
Nsg10
(tsg20
(dp923
g22
I01
sg23
I00
sg24
I01
sg25
I00
sg26
I00
sg27
I00
sg28
I00
sg29
I00
sg30
I00
sg31
I01
sg32
I00
sg33
I00
sg34
I00
sg35
I01
sg36
I01
sg37
I00
sg38
I01
sg39
I01
sg40
I01
sg41
I00
sg42
I01
sg43
I01
sstbg1
(g44
g3
NtRp924
(dp925
g6
(lp926
sg9
Nsg10
(g219
g71
tp927
sg20
(dp928
g56
I01
sg57
I01
sg84
I00
sg58
I01
sg26
I00
sg59
I01
sg60
I00
sg40
I01
sg61
I00
sg39
I01
sg66
Nsg62
I00
ssg69
I01
sg8
I-3576810473684118925
sbg1
(g2
g3
NtRp929
(dp930
g6
(lp931
sg8
I5499837192701306544
sg9
Nsg10
(g1
(g11
g3
NtRp932
(dp933
g6
(lp934
sg8
I-4240172574893040276
sg9
Nsg10
(g71
g924
g162
g257
tp935
sg20
g120
sg69
I01
sbg1
(g11
g3
NtRp936
(dp937
g6
(lp938
sg8
I-4071559842276938855
sg9
Nsg10
(g128
g924
g343
g152
tp939
sg20
g120
sg69
I01
sbg1
(g11
g3
NtRp940
(dp941
g6
(lp942
sg8
I2786626080024306316
sg9
Nsg10
(g71
g924
g92
tp943
sg20
g120
sg69
I01
sbtp944
sg20
g187
sg69
I01
sbg189
tp945
sg20
g120
sg69
I01
sbg1
(g11
g3
NtRp946
(dp947
g6
(lp948
sg8
I4543882496359684877
sg9
Nsg10
(g1
(g15
g3
NtRp949
((I0
S'1acbdc79c338dL'
I-44
I49
t(dp950
g18
I53
sg6
(lp951
sg8
I6426686777365520306
sg9
Nsg10
(tsg20
(dp952
g22
I01
sg23
I00
sg24
I01
sg25
I00
sg26
I00
sg27
I00
sg28
I00
sg29
I00
sg30
I00
sg31
I01
sg32
I00
sg33
I00
sg34
I00
sg35
I01
sg36
I01
sg37
I00
sg38
I01
sg39
I01
sg40
I01
sg41
I00
sg42
I01
sg43
I01
sstbg1
(g44
g3
NtRp953
(dp954
g6
(lp955
sg9
Nsg10
(g411
g71
tp956
sg20
(dp957
g56
I01
sg57
I01
sg84
I00
sg58
I01
sg26
I00
sg59
I01
sg60
I00
sg40
I01
sg61
I00
sg39
I01
sg66
Nsg62
I00
ssg69
I01
sg8
I-7504597671654257203
sbg1
(g2
g3
NtRp958
(dp959
g6
(lp960
sg8
I-801872978620363454
sg9
Nsg10
(g1
(g11
g3
NtRp961
(dp962
g6
(lp963
sg8
I-2412289826921008619
sg9
Nsg10
(g128
g953
g640
g152
tp964
sg20
g120
sg69
I01
sbg1
(g11
g3
NtRp965
(dp966
g6
(lp967
sg8
I-677753706915765846
sg9
Nsg10
(g71
g953
g92
tp968
sg20
g120
sg69
I01
sbg1
(g11
g3
NtRp969
(dp970
g6
(lp971
sg8
I2134900036113688076
sg9
Nsg10
(g71
g953
g162
g650
tp972
sg20
g120
sg69
I01
sbtp973
sg20
g187
sg69
I01
sbg189
tp974
sg20
g120
sg69
I01
sbg1
(g11
g3
NtRp975
(dp976
g6
(lp977
sg8
I4936181301388702705
sg9
Nsg10
(g1
(g15
g3
NtRp978
((I0
S'13b3ad93e36125L'
I-55
I53
t(dp979
g18
I53
sg6
(lp980
sg8
I-5223672196350025829
sg9
Nsg10
(tsg20
(dp981
g22
I01
sg23
I00
sg24
I01
sg25
I00
sg26
I00
sg27
I00
sg28
I00
sg29
I00
sg30
I00
sg31
I01
sg32
I00
sg33
I00
sg34
I00
sg35
I01
sg36
I01
sg37
I00
sg38
I01
sg39
I01
sg40
I01
sg41
I00
sg42
I01
sg43
I01
sstbg219
g49
g1
(g2
g3
NtRp982
(dp983
g6
(lp984
sg8
I-3866170019136291386
sg9
Nsg10
(g1
(g11
g3
NtRp985
(dp986
g6
(lp987
sg8
I-9004408112796235811
sg9
Nsg10
(g219
g49
g1
(g2
g3
NtRp988
(dp989
g6
(lp990
sg8
I8958621508407270614
sg9
Nsg10
(g594
g1
(g11
g3
NtRp991
(dp992
g6
(lp993
sg8
I-1202604973190679077
sg9
Nsg10
(g195
g1
(g161
g3
NtRp994
(dp995
g9
Nsg10
(g1
(g2
g3
NtRp996
(dp997
g6
(lp998
sg8
I7977560976329703336
sg9
Nsg10
(g138
g1
(g11
g3
NtRp999
(dp1000
g6
(lp1001
sg8
I7315707403072473036
sg9
Nsg10
(g195
g579
tp1002
sg20
(dp1003
g115
I01
sg33
I00
sg84
I00
sg39
I01
sg36
I01
ssg69
I01
sbtp1004
sg20
(dp1005
g115
I01
sg33
I00
sg84
I00
sg39
I01
sg36
I01
ssg69
I01
sbtp1006
sg6
(lp1007
sg20
(dp1008
g115
I01
sg84
I00
sg36
I01
sg149
Nsg28
I00
sg29
Nsg150
Nsg39
I01
sg66
I01
sg59
Nsg33
I00
ssg8
I-7578563514399247898
sbg257
tp1009
sg20
(dp1010
g115
I01
sg84
I00
sg36
I01
sg149
Nsg28
I00
sg29
Nsg150
Nsg39
I01
sg66
I01
sg59
Nsg315
I00
ssg69
I01
sbg1
(g11
g3
NtRp1011
(dp1012
g6
(lp1013
sg8
I88784447789524139
sg9
Nsg10
(g195
g1
(g135
g3
NtRp1014
(dp1015
g9
Nsg10
(g996
tp1016
sg6
(lp1017
sg20
(dp1018
g115
I01
sg84
I00
sg36
I01
sg149
Nsg28
I00
sg29
Nsg150
Nsg39
I01
sg66
I01
sg59
Nsg33
I00
ssg8
I-7120905495490274551
sbg343
tp1019
sg20
(dp1020
g115
I01
sg84
I00
sg36
I01
sg149
Nsg28
I00
sg29
Nsg150
Nsg39
I01
sg66
I01
sg59
Nsg315
I00
ssg69
I01
sbtp1021
sg20
(dp1022
g115
I01
sg84
I00
sg36
I01
sg59
Nsg29
Nsg150
Nsg39
I01
sg33
I00
ssg69
I01
sbg395
tp1023
sg20
g120
sg69
I01
sbg1
(g11
g3
NtRp1024
(dp1025
g6
(lp1026
sg8
I-3675900232876157385
sg9
Nsg10
(g219
g49
g1
(g2
g3
NtRp1027
(dp1028
g6
(lp1029
sg8
I8325659633277667777
sg9
Nsg10
(g1
(g11
g3
NtRp1030
(dp1031
g6
(lp1032
sg8
I-3696955512512683079
sg9
Nsg10
(g195
g1014
tp1033
sg20
(dp1034
g115
I01
sg84
I00
sg36
I01
sg149
Nsg28
I00
sg29
Nsg150
Nsg39
I01
sg66
I01
sg59
Nsg315
I00
ssg69
I01
sbg1
(g11
g3
NtRp1035
(dp1036
g6
(lp1037
sg8
I2333641987730962615
sg9
Nsg10
(g195
g1
(g135
g3
NtRp1038
(dp1039
g9
Nsg10
(g1
(g2
g3
NtRp1040
(dp1041
g6
(lp1042
sg8
I7751945520902822286
sg9
Nsg10
(g259
g999
tp1043
sg20
(dp1044
g115
I01
sg33
I00
sg84
I00
sg39
I01
sg36
I01
ssg69
I01
sbtp1045
sg6
(lp1046
sg20
(dp1047
g115
I01
sg84
I00
sg36
I01
sg149
Nsg28
I00
sg29
Nsg150
Nsg39
I01
sg66
I01
sg59
Nsg33
I00
ssg8
I-6545831172530433605
sbtp1048
sg20
(dp1049
g115
I01
sg84
I00
sg36
I01
sg149
Nsg28
I00
sg29
Nsg150
Nsg39
I01
sg66
I01
sg59
Nsg315
I00
ssg69
I01
sbg1
(g11
g3
NtRp1050
(dp1051
g6
(lp1052
sg8
I3100761831364273466
sg9
Nsg10
(g71
g577
g257
tp1053
sg20
(dp1054
g84
I00
ssg69
I01
sbtp1055
sg20
(dp1056
g84
I00
ssg69
I01
sbg152
tp1057
sg20
g120
sg69
I01
sbg1
(g11
g3
NtRp1058
(dp1059
g6
(lp1060
sg8
I-3035188868203791917
sg9
Nsg10
(g219
g49
g1
(g2
g3
NtRp1061
(dp1062
g6
(lp1063
sg8
I-3311466473379351508
sg9
Nsg10
(g594
g1
(g11
g3
NtRp1064
(dp1065
g6
(lp1066
sg8
I3859259337750417825
sg9
Nsg10
(g1014
g343
tp1067
sg20
(dp1068
g115
I01
sg84
I00
sg36
I01
sg149
Nsg28
I00
sg29
Nsg150
Nsg39
I01
sg66
I01
sg59
Nsg315
I00
ssg69
I01
sbg1
(g11
g3
NtRp1069
(dp1070
g6
(lp1071
sg8
I5875394938798664819
sg9
Nsg10
(g994
g257
tp1072
sg20
(dp1073
g115
I01
sg84
I00
sg36
I01
sg149
Nsg28
I00
sg29
Nsg150
Nsg39
I01
sg66
I01
sg59
Nsg315
I00
ssg69
I01
sbtp1074
sg20
(dp1075
g115
I01
sg84
I00
sg36
I01
sg59
Nsg29
Nsg150
Nsg39
I01
sg33
I00
ssg69
I01
sbg92
tp1076
sg20
g120
sg69
I01
sbg1
(g11
g3
NtRp1077
(dp1078
g6
(lp1079
sg8
I-1292608721145080428
sg9
Nsg10
(g219
g49
g1
(g2
g3
NtRp1080
(dp1081
g6
(lp1082
sg8
I4972874878530078112
sg9
Nsg10
(g1
(g11
g3
NtRp1083
(dp1084
g6
(lp1085
sg8
I-7747467342237415667
sg9
Nsg10
(g71
g594
g257
tp1086
sg20
(dp1087
g84
I00
ssg69
I01
sbg994
g1
(g11
g3
NtRp1088
(dp1089
g6
(lp1090
sg8
I8298787170127048130
sg9
Nsg10
(g195
g1
(g161
g3
NtRp1091
(dp1092
g9
Nsg10
(g1040
tp1093
sg6
(lp1094
sg20
(dp1095
g115
I01
sg84
I00
sg36
I01
sg149
Nsg28
I00
sg29
Nsg150
Nsg39
I01
sg66
I01
sg59
Nsg33
I00
ssg8
I-4656499268518926184
sbtp1096
sg20
(dp1097
g115
I01
sg84
I00
sg36
I01
sg149
Nsg28
I00
sg29
Nsg150
Nsg39
I01
sg66
I01
sg59
Nsg315
I00
ssg69
I01
sbtp1098
sg20
(dp1099
g84
I00
ssg69
I01
sbg162
tp1100
sg20
g120
sg69
I01
sbtp1101
sg20
g187
sg69
I01
sbg594
g189
tp1102
sg20
g120
sg69
I01
sbg1
(g11
g3
NtRp1103
(dp1104
g6
(lp1105
sg8
I5027399260971032701
sg9
Nsg10
(g1
(g15
g3
NtRp1106
((I0
S'3775d306b668dL'
I-45
I50
t(dp1107
g18
I53
sg6
(lp1108
sg8
I-3299436939307695806
sg9
Nsg10
(tsg20
(dp1109
g22
I01
sg23
I00
sg24
I01
sg25
I00
sg26
I00
sg27
I00
sg28
I00
sg29
I00
sg30
I00
sg31
I01
sg32
I00
sg33
I00
sg34
I00
sg35
I01
sg36
I01
sg37
I00
sg38
I01
sg39
I01
sg40
I01
sg41
I00
sg42
I01
sg43
I01
sstbg1
(g44
g3
NtRp1110
(dp1111
g6
(lp1112
sg9
Nsg10
(g226
g71
tp1113
sg20
(dp1114
g56
I01
sg57
I01
sg84
I00
sg58
I01
sg26
I00
sg59
I01
sg60
I00
sg40
I01
sg61
I00
sg39
I01
sg66
Nsg62
I00
ssg69
I01
sg8
I2546717669756190273
sbg1
(g2
g3
NtRp1115
(dp1116
g6
(lp1117
sg8
I4702343067354370382
sg9
Nsg10
(g1
(g11
g3
NtRp1118
(dp1119
g6
(lp1120
sg8
I-3444639166125154703
sg9
Nsg10
(g128
g1110
g783
g152
tp1121
sg20
g120
sg69
I01
sbg1
(g11
g3
NtRp1122
(dp1123
g6
(lp1124
sg8
I-1369367975899523050
sg9
Nsg10
(g71
g1110
g92
tp1125
sg20
g120
sg69
I01
sbg1
(g11
g3
NtRp1126
(dp1127
g6
(lp1128
sg8
I639408023793541936
sg9
Nsg10
(g71
g1110
g162
g813
tp1129
sg20
g120
sg69
I01
sbtp1130
sg20
g187
sg69
I01
sbg189
tp1131
sg20
g120
sg69
I01
sbg1
(g11
g3
NtRp1132
(dp1133
g6
(lp1134
sg8
I8976496520970772477
sg9
Nsg10
(g1
(g15
g3
NtRp1135
((I0
S'b174a616d7b39L'
I-58
I52
t(dp1136
g18
I53
sg6
(lp1137
sg8
I-4719676419420184015
sg9
Nsg10
(tsg20
(dp1138
g22
I01
sg23
I00
sg24
I01
sg25
I00
sg26
I00
sg27
I00
sg28
I00
sg29
I00
sg30
I00
sg31
I01
sg32
I00
sg33
I00
sg34
I00
sg35
I01
sg36
I01
sg37
I00
sg38
I01
sg39
I01
sg40
I01
sg41
I00
sg42
I01
sg43
I01
sstbg411
g226
g1
(g2
g3
NtRp1139
(dp1140
g6
(lp1141
sg8
I-2960964293211003721
sg9
Nsg10
(g1
(g11
g3
NtRp1142
(dp1143
g6
(lp1144
sg8
I7095645521138239057
sg9
Nsg10
(g195
g475
g325
tp1145
sg20
(dp1146
g84
I00
ssg69
I01
sbg1
(g11
g3
NtRp1147
(dp1148
g6
(lp1149
sg8
I8525632562787196141
sg9
Nsg10
(g245
g528
tp1150
sg20
(dp1151
g84
I00
ssg69
I01
sbtp1152
sg20
(dp1153
g84
I00
ssg69
I01
sbg1
(g2
g3
NtRp1154
(dp1155
g6
(lp1156
sg8
I-2780473815849204941
sg9
Nsg10
(g1
(g11
g3
NtRp1157
(dp1158
g6
(lp1159
sg8
I-3344874900909724526
sg9
Nsg10
(g411
g226
g1
(g2
g3
NtRp1160
(dp1161
g6
(lp1162
sg8
I4713877808732960099
sg9
Nsg10
(g1
(g11
g3
NtRp1163
(dp1164
g6
(lp1165
sg8
I-7290723547747817121
sg9
Nsg10
(g1
(g135
g3
NtRp1166
(dp1167
g9
Nsg10
(g1
(g2
g3
NtRp1168
(dp1169
g6
(lp1170
sg8
I13520686944057819
sg9
Nsg10
(g432
g277
tp1171
sg20
(dp1172
g115
I01
sg33
I00
sg84
I00
sg39
I01
sg36
I01
ssg69
I01
sbtp1173
sg6
(lp1174
sg20
(dp1175
g115
I01
sg84
I00
sg36
I01
sg149
Nsg59
Nsg29
Nsg150
Nsg39
I01
sg66
I01
sg28
I00
sg33
I00
ssg8
I7899735817147427676
sbg650
tp1176
sg20
(dp1177
g84
I00
ssg69
I01
sbg1
(g11
g3
NtRp1178
(dp1179
g6
(lp1180
sg8
I-4031478086740444033
sg9
Nsg10
(g195
g1166
g813
tp1181
sg20
(dp1182
g84
I00
ssg69
I01
sbg1
(g11
g3
NtRp1183
(dp1184
g6
(lp1185
sg8
I-3641572153731738069
sg9
Nsg10
(g195
g640
g1
(g161
g3
NtRp1186
(dp1187
g9
Nsg10
(g1168
tp1188
sg6
(lp1189
sg20
(dp1190
g115
I01
sg84
I00
sg36
I01
sg149
Nsg59
Nsg29
Nsg150
Nsg39
I01
sg66
I01
sg28
I00
sg33
I00
ssg8
I-442822578054346881
sbtp1191
sg20
(dp1192
g84
I00
ssg69
I01
sbg1
(g11
g3
NtRp1193
(dp1194
g6
(lp1195
sg8
I-2623133466696299645
sg9
Nsg10
(g195
g783
g1186
tp1196
sg20
(dp1197
g84
I00
ssg69
I01
sbtp1198
sg20
(dp1199
g84
I00
ssg69
I01
sbg152
tp1200
sg20
g120
sg69
I01
sbg1
(g11
g3
NtRp1201
(dp1202
g6
(lp1203
sg8
I4692945156043407426
sg9
Nsg10
(g411
g226
g1
(g2
g3
NtRp1204
(dp1205
g6
(lp1206
sg8
I-1597990590066327662
sg9
Nsg10
(g1186
g1
(g11
g3
NtRp1207
(dp1208
g6
(lp1209
sg8
I3209301579455412281
sg9
Nsg10
(g1
(g135
g3
NtRp1210
(dp1211
g9
Nsg10
(g1
(g2
g3
NtRp1212
(dp1213
g6
(lp1214
sg8
I1387011463347096747
sg9
Nsg10
(g298
g674
tp1215
sg20
(dp1216
g115
I01
sg33
I00
sg84
I00
sg39
I01
sg36
I01
ssg69
I01
sbtp1217
sg6
(lp1218
sg20
(dp1219
g115
I01
sg84
I00
sg36
I01
sg149
Nsg28
I00
sg29
Nsg150
Nsg39
I01
sg66
I01
sg59
Nsg33
I00
ssg8
I-2399210089309740180
sbg1186
tp1220
sg20
(dp1221
g84
I00
ssg69
I01
sbg1
(g11
g3
NtRp1222
(dp1223
g6
(lp1224
sg8
I6198000484973504569
sg9
Nsg10
(g1166
g1
(g161
g3
NtRp1225
(dp1226
g9
Nsg10
(g1212
tp1227
sg6
(lp1228
sg20
(dp1229
g115
I01
sg84
I00
sg36
I01
sg149
Nsg28
I00
sg29
Nsg150
Nsg39
I01
sg66
I01
sg59
Nsg33
I00
ssg8
I-4852383288707821297
sbtp1230
sg20
(dp1231
g84
I00
ssg69
I01
sbtp1232
sg20
(dp1233
g84
I00
ssg69
I01
sbg92
tp1234
sg20
g120
sg69
I01
sbg1
(g11
g3
NtRp1235
(dp1236
g6
(lp1237
sg8
I5166420431525873614
sg9
Nsg10
(g411
g226
g1
(g2
g3
NtRp1238
(dp1239
g6
(lp1240
sg8
I-5194298524028728254
sg9
Nsg10
(g1
(g11
g3
NtRp1241
(dp1242
g6
(lp1243
sg8
I-7689210057090460307
sg9
Nsg10
(g195
g1210
g1186
tp1244
sg20
(dp1245
g115
I01
sg84
I00
sg36
I01
sg149
Nsg59
Nsg29
Nsg150
Nsg39
I01
sg66
I01
sg28
I00
sg315
I00
ssg69
I01
sbg1186
g1
(g11
g3
NtRp1246
(dp1247
g6
(lp1248
sg8
I6607686580011756045
sg9
Nsg10
(g195
g1166
g1225
tp1249
sg20
(dp1250
g115
I01
sg84
I00
sg36
I01
sg149
Nsg28
I00
sg29
Nsg150
Nsg39
I01
sg66
I01
sg59
Nsg315
I00
ssg69
I01
sbtp1251
sg20
(dp1252
g115
I01
sg84
I00
sg36
I01
sg59
Nsg29
Nsg150
Nsg39
I01
sg33
I00
ssg69
I01
sbg395
tp1253
sg20
g120
sg69
I01
sbg1
(g11
g3
NtRp1254
(dp1255
g6
(lp1256
sg8
I7602158539740211168
sg9
Nsg10
(g411
g226
g1
(g2
g3
NtRp1257
(dp1258
g6
(lp1259
sg8
I8765616000718512943
sg9
Nsg10
(g1
(g11
g3
NtRp1260
(dp1261
g6
(lp1262
sg8
I-5001940707586398028
sg9
Nsg10
(g1186
g650
tp1263
sg20
(dp1264
g84
I00
ssg69
I01
sbg1
(g11
g3
NtRp1265
(dp1266
g6
(lp1267
sg8
I44596983117984264
sg9
Nsg10
(g195
g1166
g783
tp1268
sg20
(dp1269
g84
I00
ssg69
I01
sbg1
(g11
g3
NtRp1270
(dp1271
g6
(lp1272
sg8
I2894819142274041862
sg9
Nsg10
(g1166
g640
tp1273
sg20
(dp1274
g84
I00
ssg69
I01
sbg1
(g11
g3
NtRp1275
(dp1276
g6
(lp1277
sg8
I7576221667437483644
sg9
Nsg10
(g1186
g813
tp1278
sg20
(dp1279
g84
I00
ssg69
I01
sbtp1280
sg20
(dp1281
g84
I00
ssg69
I01
sbg162
tp1282
sg20
g120
sg69
I01
sbtp1283
sg20
g187
sg69
I01
sbg189
tp1284
sg20
g120
sg69
I01
sbtp1285
sg20
g187
sg69
I01
sb.