ccopy_reg
_reconstructor
p1
(csympy.core.add
Add
p2
c__builtin__
object
p3
NtRp4
(dp5
S'_a_inprogress'
p6
(lp7
sS'_mhash'
p8
NsS'_assume_type_keys'
p9
NsS'_args'
p10
(g1
(csympy.core.mul
Mul
p11
g3
NtRp12
(dp13
g6
(lp14
sg8
I-6931631937284694264
sg9
Nsg10
(g1
(csympy.core.numbers
Float
p15
g3
NtRp16
((I1
S'11d83111d474bfL'
I-54
I53
t(dp17
S'_prec'
p18
I53
sg6
(lp19
sg8
I-1443629493062759219
sg9
Nsg10
(tsS'_assumptions'
p20
(dp21
S'real'
p22
I01
sS'even'
p23
I00
sS'comparable'
p24
I01
sS'irrational'
p25
I00
sS'nonpositive'
p26
I01
sS'composite'
p27
I00
sS'unbounded'
p28
I00
sS'negative'
p29
I01
sS'zero'
p30
I00
sS'bounded'
p31
I01
sS'integer'
p32
I00
sS'imaginary'
p33
I00
sS'odd'
p34
I00
sS'nonzero'
p35
I01
sS'commutative'
p36
I01
sS'prime'
p37
I00
sS'noninteger'
p38
I01
sS'complex'
p39
I01
sS'nonnegative'
p40
I00
sS'infinitesimal'
p41
I00
sS'positive'
p42
I00
sS'finite'
p43
I01
sstbg1
(g2
g3
NtRp44
(dp45
g6
(lp46
sg8
I-2780473815849204941
sg9
Nsg10
(g1
(g11
g3
NtRp47
(dp48
g6
(lp49
sg8
I-3344874900909724526
sg9
Nsg10
(g1
(csympy.core.symbol
Symbol
p50
g3
NtRp51
(dp52
g6
(lp53
sS'name'
p54
S'A_pa_mod'
p55
sg9
c__builtin__
frozenset
p56
((lp57
S'real'
p58
aS'nonzero'
p59
aS'commutative'
p60
aS'nonpositive'
p61
aS'positive'
p62
aS'negative'
p63
aS'nonnegative'
p64
aS'zero'
p65
ag39
aS'imaginary'
p66
atRp67
sg10
(tsg20
(dp68
g58
I01
sg59
I01
sS'comparable'
p69
I00
sg60
I01
sg61
I00
sg62
I01
sg63
I00
sg64
I01
sg65
I00
sg39
I01
sS'bounded'
p70
NsS'integer'
p71
Nsg66
I00
sS'irrational'
p72
NssS'is_commutative'
p73
I01
sg8
I-1418913568875714266
sbg1
(g50
g3
NtRp74
(dp75
g6
(lp76
sg54
S'A_pe_mod'
p77
sg9
g56
((lp78
g58
ag59
ag60
ag61
ag62
ag63
ag64
ag65
ag39
ag66
atRp79
sg10
(tsg20
(dp80
g58
I01
sg59
I01
sg69
I00
sg60
I01
sg61
I00
sg62
I01
sg63
I00
sg64
I01
sg65
I00
sg39
I01
sg70
Nsg66
I00
ssg73
I01
sg8
I-3320075899761753934
sbg1
(g2
g3
NtRp81
(dp82
g6
(lp83
sg8
I4713877808732960099
sg9
Nsg10
(g1
(g11
g3
NtRp84
(dp85
g6
(lp86
sg8
I-7290723547747817121
sg9
Nsg10
(g1
(csympy.functions.elementary.trigonometric
cos
p87
g3
NtRp88
(dp89
g9
Nsg10
(g1
(g2
g3
NtRp90
(dp91
g6
(lp92
sg8
I13520686944057819
sg9
Nsg10
(g1
(g50
g3
NtRp93
(dp94
g6
(lp95
sg54
S'delta_pa'
p96
sg9
g56
((lp97
S'real'
p98
ag33
ag39
ag36
atRp99
sg10
(tsg20
(dp100
g98
I01
sg69
I00
sg36
I01
sg62
Nsg39
I01
sg71
Nsg33
I00
sg72
Nssg73
I01
sg8
I-6650190805280508945
sbg1
(g11
g3
NtRp101
(dp102
g6
(lp103
sg8
I-3326555492124600657
sg9
Nsg10
(g1
(csympy.core.numbers
NegativeOne
p104
g3
NtRp105
(dp106
S'q'
I1
sS'p'
I-1
sg6
(lp107
sg8
I7661115593229879962
sg9
Nsg10
(tsg20
(dp108
g26
I01
sg28
I00
sS'zero'
p109
I00
sg34
I01
sg59
I01
sg36
I01
sg62
I00
sS'noninteger'
p110
I00
sS'negative'
p111
I01
sg39
I01
sS'rational'
p112
I01
sg43
I01
sS'real'
p113
I01
sS'even'
p114
I00
sg24
I01
sS'irrational'
p115
I00
sg27
I00
sg31
I01
sS'integer'
p116
I01
sg33
I00
sg37
I00
sg40
I00
sg41
I00
ssbg1
(g50
g3
NtRp117
(dp118
g6
(lp119
sg54
S'delta_pe'
p120
sg9
g56
((lp121
g98
ag33
ag39
ag36
atRp122
sg10
(tsg20
(dp123
g98
I01
sg69
I00
sg36
I01
sg62
Nsg39
I01
sg71
Nsg33
I00
sg72
Nssg73
I01
sg8
I8770729286534471027
sbtp124
sg20
(dp125
g98
I01
sg33
I00
sS'comparable'
p126
I00
sg39
I01
sg36
I01
ssg73
I01
sbtp127
sg20
(dp128
g98
I01
sg33
I00
sg126
I00
sg39
I01
sg36
I01
ssg73
I01
sbtp129
sg6
(lp130
sg20
(dp131
g98
I01
sg126
I00
sg36
I01
sS'nonpositive'
p132
Nsg62
Nsg29
NsS'nonnegative'
p133
Nsg39
I01
sg70
I01
sg28
I00
sg33
I00
ssg8
I7899735817147427676
sbg1
(csympy.functions.elementary.trigonometric
sin
p134
g3
NtRp135
(dp136
g9
Nsg10
(g1
(cUrania.SympyBasic
USymbol
p137
g3
NtRp138
(dp139
g6
(lp140
sg54
S'phi_pa'
p141
sg9
g56
((lp142
g98
ag33
ag39
ag36
atRp143
sg10
(tsg20
(dp144
g98
I01
sg69
I00
sg36
I01
sg62
Nsg39
I01
sg33
I00
ssg8
I-5998936713640044739
sg73
S'\\Phi_pa'
p145
sbtp146
sg6
(lp147
sg20
(dp148
g98
I01
sg126
I00
sg36
I01
sg132
Nsg62
Nsg29
Nsg133
Nsg39
I01
sg70
I01
sg28
I00
sg33
I00
ssg8
I2932854127123315493
sbtp149
sg20
(dp150
g126
I00
ssg73
I01
sbg1
(g11
g3
NtRp151
(dp152
g6
(lp153
sg8
I-4031478086740444033
sg9
Nsg10
(g105
g88
g1
(g134
g3
NtRp154
(dp155
g9
Nsg10
(g1
(g137
g3
NtRp156
(dp157
g6
(lp158
sg54
S'phi_pe'
p159
sg9
g56
((lp160
g98
ag33
ag39
ag36
atRp161
sg10
(tsg20
(dp162
g98
I01
sg69
I00
sg36
I01
sg62
Nsg39
I01
sg33
I00
ssg8
I2704603242581017557
sg73
S'\\Phi_pe'
p163
sbtp164
sg6
(lp165
sg20
(dp166
g98
I01
sg126
I00
sg36
I01
sg28
I00
sg29
Nsg133
Nsg39
I01
sg70
I01
sg62
Nsg33
I00
ssg8
I7303452171199553837
sbtp167
sg20
(dp168
g126
I00
ssg73
I01
sbg1
(g11
g3
NtRp169
(dp170
g6
(lp171
sg8
I-3641572153731738069
sg9
Nsg10
(g105
g1
(g87
g3
NtRp172
(dp173
g9
Nsg10
(g138
tp174
sg6
(lp175
sg20
(dp176
g98
I01
sg126
I00
sg36
I01
sg132
Nsg62
Nsg29
Nsg133
Nsg39
I01
sg70
I01
sg28
I00
sg33
I00
ssg8
I7471640168288632962
sbg1
(g134
g3
NtRp177
(dp178
g9
Nsg10
(g90
tp179
sg6
(lp180
sg20
(dp181
g98
I01
sg126
I00
sg36
I01
sg132
Nsg62
Nsg29
Nsg133
Nsg39
I01
sg70
I01
sg28
I00
sg33
I00
ssg8
I-442822578054346881
sbtp182
sg20
(dp183
g126
I00
ssg73
I01
sbg1
(g11
g3
NtRp184
(dp185
g6
(lp186
sg8
I-2623133466696299645
sg9
Nsg10
(g105
g1
(g87
g3
NtRp187
(dp188
g9
Nsg10
(g156
tp189
sg6
(lp190
sg20
(dp191
g98
I01
sg126
I00
sg36
I01
sg132
Nsg62
Nsg29
Nsg133
Nsg39
I01
sg70
I01
sg28
I00
sg33
I00
ssg8
I1324056794318574858
sbg177
tp192
sg20
(dp193
g126
I00
ssg73
I01
sbtp194
sg20
(dp195
g126
I00
ssg73
I01
sbg1
(csympy.functions.elementary.hyperbolic
sinh
p196
g3
NtRp197
(dp198
g9
Nsg10
(g1
(g11
g3
NtRp199
(dp200
g6
(lp201
sg8
I2471729134988919702
sg9
Nsg10
(g1
(csympy.core.numbers
Half
p202
g3
NtRp203
(dp204
S'q'
I2
sS'p'
I1
sg6
(lp205
sg9
Nsg8
I-5026320711726984031
sg10
(tsg20
(dp206
g113
I01
sg23
I00
sg24
I01
sg115
I00
sg61
I00
sg27
I00
sg28
I00
sg63
I00
sg30
I00
sg31
I01
sS'integer'
p207
I00
sg33
I00
sg34
I00
sg35
I01
sg36
I01
sg37
I00
sg38
I01
sg39
I01
sg64
I01
sg41
I00
sg112
I01
sg62
I01
sg43
I01
ssbg1
(g50
g3
NtRp208
(dp209
g6
(lp210
sg54
S't'
sg9
g56
((lp211
g58
ag59
ag60
ag61
ag62
ag63
ag64
ag65
ag39
ag66
atRp212
sg10
(tsg20
(dp213
g58
I01
sg59
I01
sg69
I00
sg60
I01
sg61
I00
sg62
I01
sg63
I00
sg64
I01
sg65
I00
sg39
I01
sg66
I00
ssg73
S't'
sg8
I-3152537381156997509
sbg1
(g137
g3
NtRp214
(dp215
g6
(lp216
sg54
S'DG'
p217
sg9
g56
((lp218
g98
ag33
ag39
ag36
atRp219
sg10
(tsg20
(dp220
g98
I01
sg33
I00
sg69
I00
sg39
I01
sg36
I01
ssg8
I3001674312114001224
sg73
S'\\Delta\\Gamma'
p221
sbtp222
sg20
(dp223
sg73
I01
sbtp224
sg6
(lp225
sg20
(dp226
sg8
I4593994924869938727
sbtp227
sg20
g223
sg73
I01
sbg1
(g11
g3
NtRp228
(dp229
g6
(lp230
sg8
I4692945156043407426
sg9
Nsg10
(g51
g74
g1
(g2
g3
NtRp231
(dp232
g6
(lp233
sg8
I-1597990590066327662
sg9
Nsg10
(g177
g1
(g11
g3
NtRp234
(dp235
g6
(lp236
sg8
I3209301579455412281
sg9
Nsg10
(g1
(g87
g3
NtRp237
(dp238
g9
Nsg10
(g1
(g2
g3
NtRp239
(dp240
g6
(lp241
sg8
I1387011463347096747
sg9
Nsg10
(g156
g1
(g11
g3
NtRp242
(dp243
g6
(lp244
sg8
I2811977234285427781
sg9
Nsg10
(g105
g138
tp245
sg20
(dp246
g98
I01
sg33
I00
sg126
I00
sg39
I01
sg36
I01
ssg73
I01
sbtp247
sg20
(dp248
g98
I01
sg33
I00
sg126
I00
sg39
I01
sg36
I01
ssg73
I01
sbtp249
sg6
(lp250
sg20
(dp251
g98
I01
sg126
I00
sg36
I01
sg132
Nsg28
I00
sg29
Nsg133
Nsg39
I01
sg70
I01
sg62
Nsg33
I00
ssg8
I-2399210089309740180
sbg177
tp252
sg20
(dp253
g126
I00
ssg73
I01
sbg1
(g11
g3
NtRp254
(dp255
g6
(lp256
sg8
I6198000484973504569
sg9
Nsg10
(g88
g1
(g134
g3
NtRp257
(dp258
g9
Nsg10
(g239
tp259
sg6
(lp260
sg20
(dp261
g98
I01
sg126
I00
sg36
I01
sg132
Nsg28
I00
sg29
Nsg133
Nsg39
I01
sg70
I01
sg62
Nsg33
I00
ssg8
I-4852383288707821297
sbtp262
sg20
(dp263
g126
I00
ssg73
I01
sbtp264
sg20
(dp265
g126
I00
ssg73
I01
sbg1
(csympy.functions.elementary.hyperbolic
cosh
p266
g3
NtRp267
(dp268
g9
Nsg10
(g199
tp269
sg6
(lp270
sg20
(dp271
sg8
I-768825475810097342
sbtp272
sg20
g223
sg73
I01
sbg1
(g11
g3
NtRp273
(dp274
g6
(lp275
sg8
I5166420431525873614
sg9
Nsg10
(g51
g74
g1
(g2
g3
NtRp276
(dp277
g6
(lp278
sg8
I-5194298524028728254
sg9
Nsg10
(g1
(g11
g3
NtRp279
(dp280
g6
(lp281
sg8
I-7689210057090460307
sg9
Nsg10
(g105
g237
g177
tp282
sg20
(dp283
g98
I01
sg126
I00
sg36
I01
sg132
Nsg62
Nsg29
Nsg133
Nsg39
I01
sg70
I01
sg28
I00
sS'imaginary'
p284
I00
ssg73
I01
sbg177
g1
(g11
g3
NtRp285
(dp286
g6
(lp287
sg8
I6607686580011756045
sg9
Nsg10
(g105
g88
g257
tp288
sg20
(dp289
g98
I01
sg126
I00
sg36
I01
sg132
Nsg28
I00
sg29
Nsg133
Nsg39
I01
sg70
I01
sg62
Nsg284
I00
ssg73
I01
sbtp290
sg20
(dp291
g98
I01
sg126
I00
sg36
I01
sg62
Nsg29
Nsg133
Nsg39
I01
sg33
I00
ssg73
I01
sbg1
(g87
g3
NtRp292
(dp293
g9
Nsg10
(g1
(g11
g3
NtRp294
(dp295
g6
(lp296
sg8
I8169369351272488329
sg9
Nsg10
(g208
g1
(g137
g3
NtRp297
(dp298
g6
(lp299
sg54
S'DM'
p300
sg9
g56
((lp301
g58
ag59
ag60
ag61
ag62
ag63
ag64
ag65
ag39
ag66
atRp302
sg10
(tsg20
(dp303
g58
I01
sg59
I01
sg69
I00
sg60
I01
sg61
I00
sg62
I01
sg63
I00
sg64
I01
sg65
I00
sg39
I01
sg66
I00
ssg8
I-2844416415428910570
sg73
S'\\DeltaM'
p304
sbtp305
sg20
(dp306
g126
I00
ssg73
I01
sbtp307
sg6
(lp308
sg20
(dp309
sg8
I1824400633285092870
sbtp310
sg20
g223
sg73
I01
sbg1
(g11
g3
NtRp311
(dp312
g6
(lp313
sg8
I7602158539740211168
sg9
Nsg10
(g51
g74
g1
(g2
g3
NtRp314
(dp315
g6
(lp316
sg8
I8765616000718512943
sg9
Nsg10
(g1
(g11
g3
NtRp317
(dp318
g6
(lp319
sg8
I-5001940707586398028
sg9
Nsg10
(g177
g135
tp320
sg20
(dp321
g126
I00
ssg73
I01
sbg1
(g11
g3
NtRp322
(dp323
g6
(lp324
sg8
I44596983117984264
sg9
Nsg10
(g105
g88
g187
tp325
sg20
(dp326
g126
I00
ssg73
I01
sbg1
(g11
g3
NtRp327
(dp328
g6
(lp329
sg8
I2894819142274041862
sg9
Nsg10
(g88
g172
tp330
sg20
(dp331
g126
I00
ssg73
I01
sbg1
(g11
g3
NtRp332
(dp333
g6
(lp334
sg8
I7576221667437483644
sg9
Nsg10
(g177
g154
tp335
sg20
(dp336
g126
I00
ssg73
I01
sbtp337
sg20
(dp338
g126
I00
ssg73
I01
sbg1
(g134
g3
NtRp339
(dp340
g9
Nsg10
(g294
tp341
sg6
(lp342
sg20
(dp343
sg8
I-8877428783671495767
sbtp344
sg20
g223
sg73
I01
sbtp345
sg20
(dp346
sg73
I01
sbg1
(csympy.functions.elementary.exponential
exp
p347
g3
NtRp348
(dp349
g10
(g1
(g11
g3
NtRp350
(dp351
g6
(lp352
sg8
I-1850087232827910743
sg9
Nsg10
(g105
g208
g1
(g137
g3
NtRp353
(dp354
g6
(lp355
sg54
S'G'
sg9
g56
((lp356
g58
ag59
ag60
ag61
ag62
ag63
ag64
ag65
ag39
ag66
atRp357
sg10
(tsg20
(dp358
g58
I01
sg59
I01
sg69
I00
sg60
I01
sg61
I00
sg62
I01
sg63
I00
sg64
I01
sg65
I00
sg39
I01
sg66
I00
ssg8
I-7823784118570849576
sg73
S'\\Gamma'
p359
sbtp360
sg20
g223
sg73
I01
sbtp361
sg6
(lp362
sg8
I4780154983835249234
sg20
(dp363
sg9
Nsbtp364
sg20
g223
sg73
I01
sbg1
(g11
g3
NtRp365
(dp366
g6
(lp367
sg8
I-6660557447412060639
sg9
Nsg10
(g1
(g15
g3
NtRp368
((I0
S'10f479b356211dL'
I-49
I53
t(dp369
g18
I53
sg6
(lp370
sg8
I-7824170535245764967
sg9
Nsg10
(tsg20
(dp371
g22
I01
sg23
I00
sg24
I01
sg25
I00
sg61
I00
sg27
I00
sg28
I00
sg29
I00
sg30
I00
sg31
I01
sg32
I00
sg33
I00
sg34
I00
sg35
I01
sg36
I01
sg37
I00
sg38
I01
sg39
I01
sg64
I01
sg41
I00
sS'positive'
p372
I01
sg43
I01
sstbg1
(g2
g3
NtRp373
(dp374
g6
(lp375
sg8
I-801872978620363454
sg9
Nsg10
(g1
(g11
g3
NtRp376
(dp377
g6
(lp378
sg8
I-2412289826921008619
sg9
Nsg10
(g1
(csympy.core.numbers
Integer
p379
g3
NtRp380
(dp381
S'q'
I1
sS'p'
I-2
sg6
(lp382
sg8
I-6250424536232650227
sg9
Nsg10
(tsg20
(dp383
g26
I01
sg28
I00
sg109
I00
sg34
I00
sg59
I01
sg36
I01
sg62
I00
sg110
I00
sg111
I01
sg39
I01
sg112
I01
sg43
I01
sg113
I01
sS'even'
p384
I01
sg24
I01
sg115
I00
sg27
I00
sg31
I01
sg116
I01
sg33
I00
sg37
I00
sg40
I00
sg41
I00
ssbg1
(csympy.core.power
Pow
p385
g3
NtRp386
(dp387
g6
(lp388
sg9
Nsg10
(g51
g1
(g379
g3
NtRp389
(dp390
S'q'
I1
sS'p'
I2
sg6
(lp391
sg8
I6250422013836517545
sg9
Nsg10
(tsg20
(dp392
g113
I01
sg59
I01
sg24
I01
sg36
I01
sg61
I00
sg384
I01
sg28
I00
sg110
I00
sg39
I01
sg64
I01
sg109
I00
sg41
I00
sg31
I01
sg63
I00
sg112
I01
sg62
I01
sg116
I01
sg33
I00
sg43
I01
sg34
I00
sg115
I00
ssbtp393
sg20
(dp394
g58
I01
sg59
I01
sg126
I00
sg60
I01
sg61
I00
sg62
I01
sg63
I00
sg64
I01
sg65
I00
sg39
I01
sg70
Nsg66
I00
ssg73
I01
sg8
I-7504597671654257203
sbg172
g197
tp395
sg20
g223
sg73
I01
sbg1
(g11
g3
NtRp396
(dp397
g6
(lp398
sg8
I-677753706915765846
sg9
Nsg10
(g389
g386
g267
tp399
sg20
g223
sg73
I01
sbg1
(g11
g3
NtRp400
(dp401
g6
(lp402
sg8
I2134900036113688076
sg9
Nsg10
(g389
g386
g339
g135
tp403
sg20
g223
sg73
I01
sbtp404
sg20
g346
sg73
I01
sbg348
tp405
sg20
g223
sg73
I01
sbg1
(g11
g3
NtRp406
(dp407
g6
(lp408
sg8
I-6104028321361880454
sg9
Nsg10
(g1
(g15
g3
NtRp409
((I0
S'1c67d9af4e1f39L'
I-50
I53
t(dp410
g18
I53
sg6
(lp411
sg8
I4894452913308864276
sg9
Nsg10
(tsg20
(dp412
g22
I01
sg23
I00
sg24
I01
sg25
I00
sg61
I00
sg27
I00
sg28
I00
sg29
I00
sg30
I00
sg31
I01
sg32
I00
sg33
I00
sg34
I00
sg35
I01
sg36
I01
sg37
I00
sg38
I01
sg39
I01
sg64
I01
sg41
I00
sg372
I01
sg43
I01
sstbg1
(g2
g3
NtRp413
(dp414
g6
(lp415
sg8
I5499837192701306544
sg9
Nsg10
(g1
(g11
g3
NtRp416
(dp417
g6
(lp418
sg8
I-4240172574893040276
sg9
Nsg10
(g389
g1
(g385
g3
NtRp419
(dp420
g6
(lp421
sg9
Nsg10
(g1
(g50
g3
NtRp422
(dp423
g6
(lp424
sg54
S'A_0_mod'
p425
sg9
g56
((lp426
g58
ag59
ag60
ag61
ag62
ag63
ag64
ag65
ag39
ag66
atRp427
sg10
(tsg20
(dp428
g58
I01
sg59
I01
sg69
I00
sg60
I01
sg61
I00
sg62
I01
sg63
I00
sg64
I01
sg65
I00
sg39
I01
sg70
Nsg71
Nsg66
I00
sg72
Nssg73
I01
sg8
I8560655699889273660
sbg389
tp429
sg20
(dp430
g58
I01
sg59
I01
sg126
I00
sg60
I01
sg61
I00
sg62
I01
sg63
I00
sg64
I01
sg65
I00
sg39
I01
sg70
Nsg66
I00
ssg73
I01
sg8
I-3576810473684118925
sbg339
g1
(g134
g3
NtRp431
(dp432
g9
Nsg10
(g1
(g137
g3
NtRp433
(dp434
g6
(lp435
sg54
S'phi_0'
p436
sg9
g56
((lp437
g98
ag33
ag39
ag36
atRp438
sg10
(tsg20
(dp439
g98
I01
sg69
I00
sg36
I01
sg62
Nsg39
I01
sg33
I00
ssg8
I6808470636316824775
sg73
S'\\Phi_0'
p440
sbtp441
sg6
(lp442
sg20
(dp443
g98
I01
sg126
I00
sg36
I01
sg132
Nsg28
I00
sg29
Nsg133
Nsg39
I01
sg70
I01
sg62
Nsg33
I00
ssg8
I9015787966093520675
sbtp444
sg20
g223
sg73
I01
sbg1
(g11
g3
NtRp445
(dp446
g6
(lp447
sg8
I-4071559842276938855
sg9
Nsg10
(g380
g419
g1
(g87
g3
NtRp448
(dp449
g9
Nsg10
(g433
tp450
sg6
(lp451
sg20
(dp452
g98
I01
sg126
I00
sg36
I01
sg132
Nsg28
I00
sg29
Nsg133
Nsg39
I01
sg70
I01
sg62
Nsg33
I00
ssg8
I5471883669681095424
sbg197
tp453
sg20
g223
sg73
I01
sbg1
(g11
g3
NtRp454
(dp455
g6
(lp456
sg8
I2786626080024306316
sg9
Nsg10
(g389
g419
g267
tp457
sg20
g223
sg73
I01
sbtp458
sg20
g346
sg73
I01
sbg348
tp459
sg20
g223
sg73
I01
sbg1
(g11
g3
NtRp460
(dp461
g6
(lp462
sg8
I-2388542945361737760
sg9
Nsg10
(g1
(g15
g3
NtRp463
((I0
S'1bee81a61695cfL'
I-52
I53
t(dp464
g18
I53
sg6
(lp465
sg8
I4679616383735888784
sg9
Nsg10
(tsg20
(dp466
g22
I01
sg23
I00
sg24
I01
sg25
I00
sg61
I00
sg27
I00
sg28
I00
sg29
I00
sg30
I00
sg31
I01
sg32
I00
sg33
I00
sg34
I00
sg35
I01
sg36
I01
sg37
I00
sg38
I01
sg39
I01
sg64
I01
sg41
I00
sg372
I01
sg43
I01
sstbg1
(g2
g3
NtRp467
(dp468
g6
(lp469
sg8
I-4269245854040195370
sg9
Nsg10
(g1
(g11
g3
NtRp470
(dp471
g6
(lp472
sg8
I-8410622613556011868
sg9
Nsg10
(g422
g51
g1
(g2
g3
NtRp473
(dp474
g6
(lp475
sg8
I-2995836396068076683
sg9
Nsg10
(g1
(g134
g3
NtRp476
(dp477
g9
Nsg10
(g1
(g2
g3
NtRp478
(dp479
g6
(lp480
sg8
I7308672129072185071
sg9
Nsg10
(g93
g1
(g11
g3
NtRp481
(dp482
g6
(lp483
sg8
I-1311345262456576037
sg9
Nsg10
(g105
g433
tp484
sg20
(dp485
g98
I01
sg33
I00
sg126
I00
sg39
I01
sg36
I01
ssg73
I01
sbtp486
sg20
(dp487
g98
I01
sg33
I00
sg126
I00
sg39
I01
sg36
I01
ssg73
I01
sbtp488
sg6
(lp489
sg20
(dp490
g98
I01
sg126
I00
sg36
I01
sg132
Nsg62
Nsg29
Nsg133
Nsg39
I01
sg70
I01
sg28
I00
sg33
I00
ssg8
I-7357766150074377253
sbg1
(g134
g3
NtRp491
(dp492
g9
Nsg10
(g1
(g2
g3
NtRp493
(dp494
g6
(lp495
sg8
I5835798497188179433
sg9
Nsg10
(g138
g1
(g11
g3
NtRp496
(dp497
g6
(lp498
sg8
I-2897990800298099325
sg9
Nsg10
(g105
g93
tp499
sg20
(dp500
g98
I01
sg33
I00
sg126
I00
sg39
I01
sg36
I01
ssg73
I01
sbtp501
sg20
(dp502
g98
I01
sg33
I00
sg126
I00
sg39
I01
sg36
I01
ssg73
I01
sbtp503
sg6
(lp504
sg20
(dp505
g98
I01
sg126
I00
sg36
I01
sg132
Nsg28
I00
sg29
Nsg133
Nsg39
I01
sg70
I01
sg62
Nsg33
I00
ssg8
I-6944259453400924535
sbg1
(g11
g3
NtRp506
(dp507
g6
(lp508
sg8
I4656372841303005898
sg9
Nsg10
(g389
g1
(g87
g3
NtRp509
(dp510
g9
Nsg10
(g93
tp511
sg6
(lp512
sg20
(dp513
g98
I01
sg126
I00
sg36
I01
sg132
Nsg62
Nsg29
Nsg133
Nsg39
I01
sg70
I01
sg28
I00
sg33
I00
ssg8
I-7852299139827892040
sbg431
tp514
sg20
(dp515
g126
I00
ssg73
I01
sbtp516
sg20
(dp517
g126
I00
ssg73
I01
sbg339
tp518
sg20
g223
sg73
I01
sbg1
(g11
g3
NtRp519
(dp520
g6
(lp521
sg8
I-2962997524152755325
sg9
Nsg10
(g422
g51
g1
(g2
g3
NtRp522
(dp523
g6
(lp524
sg8
I-3290872358100109299
sg9
Nsg10
(g509
g1
(g11
g3
NtRp525
(dp526
g6
(lp527
sg8
I-5990643814802136960
sg9
Nsg10
(g105
g1
(g87
g3
NtRp528
(dp529
g9
Nsg10
(g493
tp530
sg6
(lp531
sg20
(dp532
g98
I01
sg126
I00
sg36
I01
sg132
Nsg28
I00
sg29
Nsg133
Nsg39
I01
sg70
I01
sg62
Nsg33
I00
ssg8
I-7470762518258138522
sbg448
tp533
sg20
(dp534
g126
I00
ssg73
I01
sbg1
(g11
g3
NtRp535
(dp536
g6
(lp537
sg8
I6938588450210456080
sg9
Nsg10
(g105
g491
g431
tp538
sg20
(dp539
g126
I00
ssg73
I01
sbtp540
sg20
(dp541
g126
I00
ssg73
I01
sbg292
tp542
sg20
g223
sg73
I01
sbg1
(g11
g3
NtRp543
(dp544
g6
(lp545
sg8
I2916985231279884961
sg9
Nsg10
(g422
g51
g1
(g2
g3
NtRp546
(dp547
g6
(lp548
sg8
I-1149008882524663734
sg9
Nsg10
(g1
(g11
g3
NtRp549
(dp550
g6
(lp551
sg8
I-6488679001096866910
sg9
Nsg10
(g105
g1
(g87
g3
NtRp552
(dp553
g9
Nsg10
(g478
tp554
sg6
(lp555
sg20
(dp556
g98
I01
sg126
I00
sg36
I01
sg132
Nsg62
Nsg29
Nsg133
Nsg39
I01
sg70
I01
sg28
I00
sg33
I00
ssg8
I-6233315007587008584
sbtp557
sg20
(dp558
g98
I01
sg126
I00
sg36
I01
sg132
Nsg62
Nsg29
Nsg133
Nsg39
I01
sg70
I01
sg28
I00
sg284
I00
ssg73
I01
sbg1
(g11
g3
NtRp559
(dp560
g6
(lp561
sg8
I-5686607356699737187
sg9
Nsg10
(g389
g1
(g134
g3
NtRp562
(dp563
g9
Nsg10
(g93
tp564
sg6
(lp565
sg20
(dp566
g98
I01
sg126
I00
sg36
I01
sg132
Nsg28
I00
sg29
Nsg133
Nsg39
I01
sg70
I01
sg62
Nsg33
I00
ssg8
I3552502690060692699
sbg431
tp567
sg20
(dp568
g126
I00
ssg73
I01
sbg1
(g11
g3
NtRp569
(dp570
g6
(lp571
sg8
I-4752113053672384204
sg9
Nsg10
(g105
g528
tp572
sg20
(dp573
g98
I01
sg126
I00
sg36
I01
sg132
Nsg28
I00
sg29
Nsg133
Nsg39
I01
sg70
I01
sg62
Nsg284
I00
ssg73
I01
sbtp574
sg20
(dp575
g126
I00
ssg73
I01
sbg197
tp576
sg20
g223
sg73
I01
sbg1
(g11
g3
NtRp577
(dp578
g6
(lp579
sg8
I6586975398385195649
sg9
Nsg10
(g422
g51
g1
(g2
g3
NtRp580
(dp581
g6
(lp582
sg8
I-2775411335616649261
sg9
Nsg10
(g509
g1
(g11
g3
NtRp583
(dp584
g6
(lp585
sg8
I5036518913357940040
sg9
Nsg10
(g491
g431
tp586
sg20
(dp587
g126
I00
ssg73
I01
sbg1
(g11
g3
NtRp588
(dp589
g6
(lp590
sg8
I6532916036265573566
sg9
Nsg10
(g528
g448
tp591
sg20
(dp592
g126
I00
ssg73
I01
sbtp593
sg20
(dp594
g126
I00
ssg73
I01
sbg267
tp595
sg20
g223
sg73
I01
sbtp596
sg20
g346
sg73
I01
sbg348
tp597
sg20
g223
sg73
I01
sbg1
(g11
g3
NtRp598
(dp599
g6
(lp600
sg8
I-10618637023914777
sg9
Nsg10
(g1
(g15
g3
NtRp601
((I0
S'1f51aab464a3abL'
I-50
I53
t(dp602
g18
I53
sg6
(lp603
sg8
I4029536261883869186
sg9
Nsg10
(tsg20
(dp604
g22
I01
sg23
I00
sg24
I01
sg25
I00
sg61
I00
sg27
I00
sg28
I00
sg29
I00
sg30
I00
sg31
I01
sg32
I00
sg33
I00
sg34
I00
sg35
I01
sg36
I01
sg37
I00
sg38
I01
sg39
I01
sg64
I01
sg41
I00
sg372
I01
sg43
I01
sstbg1
(g2
g3
NtRp605
(dp606
g6
(lp607
sg8
I2311683947684257183
sg9
Nsg10
(g1
(g11
g3
NtRp608
(dp609
g6
(lp610
sg8
I-7533174469913870353
sg9
Nsg10
(g389
g1
(g385
g3
NtRp611
(dp612
g6
(lp613
sg9
Nsg10
(g1
(g50
g3
NtRp614
(dp615
g6
(lp616
sg54
S'A_S_mod'
p617
sg9
g56
((lp618
g58
ag59
ag60
ag61
ag62
ag63
ag64
ag65
ag39
ag66
atRp619
sg10
(tsg20
(dp620
g58
I01
sg59
I01
sg69
I00
sg60
I01
sg61
I00
sg62
I01
sg63
I00
sg64
I01
sg65
I00
sg39
I01
sg70
Nsg71
Nsg66
I00
sg72
Nssg73
I01
sg8
I3252498464732202083
sbg389
tp621
sg20
(dp622
g58
I01
sg59
I01
sg126
I00
sg60
I01
sg61
I00
sg62
I01
sg63
I00
sg64
I01
sg65
I00
sg39
I01
sg70
Nsg66
I00
ssg73
I01
sg8
I8251370812422118668
sbg267
tp623
sg20
g223
sg73
I01
sbg1
(g11
g3
NtRp624
(dp625
g6
(lp626
sg8
I-1552204443902093524
sg9
Nsg10
(g380
g611
g1
(g87
g3
NtRp627
(dp628
g9
Nsg10
(g1
(g137
g3
NtRp629
(dp630
g6
(lp631
sg54
S'phi_S'
p632
sg9
g56
((lp633
g98
ag33
ag39
ag36
atRp634
sg10
(tsg20
(dp635
g98
I01
sg33
I00
sg69
I00
sg39
I01
sg36
I01
ssg8
I-6282709264897652615
sg73
S'\\Phi_S'
p636
sbtp637
sg6
(lp638
sg20
(dp639
g98
I01
sg126
I00
sg36
I01
sg132
Nsg62
Nsg29
Nsg133
Nsg39
I01
sg70
I01
sg28
I00
sg33
I00
ssg8
I3768683459244969142
sbg197
tp640
sg20
g223
sg73
I01
sbg1
(g11
g3
NtRp641
(dp642
g6
(lp643
sg8
I-35643187423105643
sg9
Nsg10
(g389
g611
g339
g1
(g134
g3
NtRp644
(dp645
g9
Nsg10
(g629
tp646
sg6
(lp647
sg20
(dp648
g98
I01
sg126
I00
sg36
I01
sg132
Nsg62
Nsg29
Nsg133
Nsg39
I01
sg70
I01
sg28
I00
sg33
I00
ssg8
I-4875741517638720039
sbtp649
sg20
g223
sg73
I01
sbtp650
sg20
g346
sg73
I01
sbg348
tp651
sg20
g223
sg73
I01
sbg1
(g11
g3
NtRp652
(dp653
g6
(lp654
sg8
I2595381629720493106
sg9
Nsg10
(g1
(g15
g3
NtRp655
((I1
S'd74f2f04ee795L'
I-54
I52
t(dp656
g18
I53
sg6
(lp657
sg8
I2005178001096386302
sg9
Nsg10
(tsg20
(dp658
g22
I01
sg23
I00
sg24
I01
sg25
I00
sg26
I01
sg27
I00
sg28
I00
sg29
I01
sg30
I00
sg31
I01
sg32
I00
sg33
I00
sg34
I00
sg35
I01
sg36
I01
sg37
I00
sg38
I01
sg39
I01
sg40
I00
sg41
I00
sg42
I00
sg43
I01
sstbg1
(g2
g3
NtRp659
(dp660
g6
(lp661
sg8
I2787310108800253714
sg9
Nsg10
(g1
(g11
g3
NtRp662
(dp663
g6
(lp664
sg8
I-8908428072138356946
sg9
Nsg10
(g422
g74
g1
(g2
g3
NtRp665
(dp666
g6
(lp667
sg8
I1974455331861416293
sg9
Nsg10
(g1
(g11
g3
NtRp668
(dp669
g6
(lp670
sg8
I-8554144454548483118
sg9
Nsg10
(g380
g1
(g87
g3
NtRp671
(dp672
g9
Nsg10
(g117
tp673
sg6
(lp674
sg20
(dp675
g98
I01
sg126
I00
sg36
I01
sg132
Nsg62
Nsg29
Nsg133
Nsg39
I01
sg70
I01
sg28
I00
sg33
I00
ssg8
I-4731014868831868572
sbg431
tp676
sg20
(dp677
g126
I00
ssg73
I01
sbg1
(g134
g3
NtRp678
(dp679
g9
Nsg10
(g1
(g2
g3
NtRp680
(dp681
g6
(lp682
sg8
I4027114722365692163
sg9
Nsg10
(g101
g433
tp683
sg20
(dp684
g98
I01
sg33
I00
sg126
I00
sg39
I01
sg36
I01
ssg73
I01
sbtp685
sg6
(lp686
sg20
(dp687
g98
I01
sg126
I00
sg36
I01
sg132
Nsg62
Nsg29
Nsg133
Nsg39
I01
sg70
I01
sg28
I00
sg33
I00
ssg8
I-3693311176099059241
sbg1
(g11
g3
NtRp688
(dp689
g6
(lp690
sg8
I2812977762270826473
sg9
Nsg10
(g105
g1
(g134
g3
NtRp691
(dp692
g9
Nsg10
(g1
(g2
g3
NtRp693
(dp694
g6
(lp695
sg8
I6404143776064118809
sg9
Nsg10
(g1
(g11
g3
NtRp696
(dp697
g6
(lp698
sg8
I8262746043143516765
sg9
Nsg10
(g105
g156
tp699
sg20
(dp700
g98
I01
sg33
I00
sg126
I00
sg39
I01
sg36
I01
ssg73
I01
sbg117
tp701
sg20
(dp702
g98
I01
sg33
I00
sg126
I00
sg39
I01
sg36
I01
ssg73
I01
sbtp703
sg6
(lp704
sg20
(dp705
g98
I01
sg126
I00
sg36
I01
sg132
Nsg28
I00
sg29
Nsg133
Nsg39
I01
sg70
I01
sg62
Nsg33
I00
ssg8
I4872962426709324537
sbtp706
sg20
(dp707
g98
I01
sg126
I00
sg36
I01
sg132
Nsg28
I00
sg29
Nsg133
Nsg39
I01
sg70
I01
sg62
Nsg284
I00
ssg73
I01
sbtp708
sg20
(dp709
g126
I00
ssg73
I01
sbg197
tp710
sg20
g223
sg73
I01
sbg1
(g11
g3
NtRp711
(dp712
g6
(lp713
sg8
I-2719653381130585220
sg9
Nsg10
(g422
g74
g1
(g2
g3
NtRp714
(dp715
g6
(lp716
sg8
I-8443987526155219514
sg9
Nsg10
(g1
(g134
g3
NtRp717
(dp718
g9
Nsg10
(g117
tp719
sg6
(lp720
sg20
(dp721
g98
I01
sg126
I00
sg36
I01
sg132
Nsg28
I00
sg29
Nsg133
Nsg39
I01
sg70
I01
sg62
Nsg33
I00
ssg8
I-8681393235736206713
sbg1
(g11
g3
NtRp722
(dp723
g6
(lp724
sg8
I-3738586470278130173
sg9
Nsg10
(g1
(g87
g3
NtRp725
(dp726
g9
Nsg10
(g693
tp727
sg6
(lp728
sg20
(dp729
g98
I01
sg126
I00
sg36
I01
sg132
Nsg28
I00
sg29
Nsg133
Nsg39
I01
sg70
I01
sg62
Nsg33
I00
ssg8
I-8928740241656047530
sbg431
tp730
sg20
(dp731
g126
I00
ssg73
I01
sbg1
(g11
g3
NtRp732
(dp733
g6
(lp734
sg8
I-31906943561637921
sg9
Nsg10
(g448
g691
tp735
sg20
(dp736
g126
I00
ssg73
I01
sbtp737
sg20
(dp738
g126
I00
ssg73
I01
sbg267
tp739
sg20
g223
sg73
I01
sbg1
(g11
g3
NtRp740
(dp741
g6
(lp742
sg8
I3730411592860245201
sg9
Nsg10
(g422
g74
g1
(g2
g3
NtRp743
(dp744
g6
(lp745
sg8
I-4435644664173520320
sg9
Nsg10
(g725
g1
(g11
g3
NtRp746
(dp747
g6
(lp748
sg8
I-8706729143453783311
sg9
Nsg10
(g389
g717
g431
tp749
sg20
(dp750
g126
I00
ssg73
I01
sbg1
(g11
g3
NtRp751
(dp752
g6
(lp753
sg8
I8836127958705808246
sg9
Nsg10
(g105
g1
(g87
g3
NtRp754
(dp755
g9
Nsg10
(g680
tp756
sg6
(lp757
sg20
(dp758
g98
I01
sg126
I00
sg36
I01
sg132
Nsg28
I00
sg29
Nsg133
Nsg39
I01
sg70
I01
sg62
Nsg33
I00
ssg8
I-1218079028779679948
sbtp759
sg20
(dp760
g98
I01
sg126
I00
sg36
I01
sg132
Nsg28
I00
sg29
Nsg133
Nsg39
I01
sg70
I01
sg62
Nsg284
I00
ssg73
I01
sbtp761
sg20
(dp762
g126
I00
ssg73
I01
sbg339
tp763
sg20
g223
sg73
I01
sbg1
(g11
g3
NtRp764
(dp765
g6
(lp766
sg8
I5579888473031487528
sg9
Nsg10
(g422
g74
g1
(g2
g3
NtRp767
(dp768
g6
(lp769
sg8
I5728098548322969902
sg9
Nsg10
(g717
g1
(g11
g3
NtRp770
(dp771
g6
(lp772
sg8
I-3478144827272654773
sg9
Nsg10
(g105
g725
g431
tp773
sg20
(dp774
g126
I00
ssg73
I01
sbg1
(g11
g3
NtRp775
(dp776
g6
(lp777
sg8
I7687458320660976079
sg9
Nsg10
(g105
g448
g691
tp778
sg20
(dp779
g126
I00
ssg73
I01
sbtp780
sg20
(dp781
g126
I00
ssg73
I01
sbg292
tp782
sg20
g223
sg73
I01
sbtp783
sg20
g346
sg73
I01
sbg348
tp784
sg20
g223
sg73
I01
sbg1
(g11
g3
NtRp785
(dp786
g6
(lp787
sg8
I4309507291512728082
sg9
Nsg10
(g1
(g15
g3
NtRp788
((I0
S'1df8e67d16c92bL'
I-50
I53
t(dp789
g18
I53
sg6
(lp790
sg8
I-6399908704264398718
sg9
Nsg10
(tsg20
(dp791
g22
I01
sg23
I00
sg24
I01
sg25
I00
sg61
I00
sg27
I00
sg28
I00
sg29
I00
sg30
I00
sg31
I01
sg32
I00
sg33
I00
sg34
I00
sg35
I01
sg36
I01
sg37
I00
sg38
I01
sg39
I01
sg64
I01
sg41
I00
sg372
I01
sg43
I01
sstbg1
(g2
g3
NtRp792
(dp793
g6
(lp794
sg8
I4702343067354370382
sg9
Nsg10
(g1
(g11
g3
NtRp795
(dp796
g6
(lp797
sg8
I-3444639166125154703
sg9
Nsg10
(g380
g1
(g385
g3
NtRp798
(dp799
g6
(lp800
sg9
Nsg10
(g74
g389
tp801
sg20
(dp802
g58
I01
sg59
I01
sg126
I00
sg60
I01
sg61
I00
sg62
I01
sg63
I00
sg64
I01
sg65
I00
sg39
I01
sg70
Nsg66
I00
ssg73
I01
sg8
I2546717669756190273
sbg187
g197
tp803
sg20
g223
sg73
I01
sbg1
(g11
g3
NtRp804
(dp805
g6
(lp806
sg8
I-1369367975899523050
sg9
Nsg10
(g389
g798
g267
tp807
sg20
g223
sg73
I01
sbg1
(g11
g3
NtRp808
(dp809
g6
(lp810
sg8
I639408023793541936
sg9
Nsg10
(g389
g798
g339
g154
tp811
sg20
g223
sg73
I01
sbtp812
sg20
g346
sg73
I01
sbg348
tp813
sg20
g223
sg73
I01
sbg1
(g11
g3
NtRp814
(dp815
g6
(lp816
sg8
I4896580211284269894
sg9
Nsg10
(g1
(g15
g3
NtRp817
((I1
S'1d905d28625361L'
I-54
I53
t(dp818
g18
I53
sg6
(lp819
sg8
I-1927439080241048377
sg9
Nsg10
(tsg20
(dp820
g22
I01
sg23
I00
sg24
I01
sg25
I00
sg26
I01
sg27
I00
sg28
I00
sg29
I01
sg30
I00
sg31
I01
sg32
I00
sg33
I00
sg34
I00
sg35
I01
sg36
I01
sg37
I00
sg38
I01
sg39
I01
sg40
I00
sg41
I00
sg42
I00
sg43
I01
sstbg1
(g2
g3
NtRp821
(dp822
g6
(lp823
sg8
I7218684392654434959
sg9
Nsg10
(g1
(g11
g3
NtRp824
(dp825
g6
(lp826
sg8
I-7008019966506235173
sg9
Nsg10
(g614
g51
g1
(g2
g3
NtRp827
(dp828
g6
(lp829
sg8
I-511032044708865605
sg9
Nsg10
(g1
(g11
g3
NtRp830
(dp831
g6
(lp832
sg8
I-2036845894992755258
sg9
Nsg10
(g105
g627
g1
(g134
g3
NtRp833
(dp834
g9
Nsg10
(g1
(g2
g3
NtRp835
(dp836
g6
(lp837
sg8
I-3492198264376341392
sg9
Nsg10
(g496
g1
(g50
g3
NtRp838
(dp839
g6
(lp840
sg54
S'delta_S'
p841
sg9
g56
((lp842
g98
ag33
ag39
ag36
atRp843
sg10
(tsg20
(dp844
g98
I01
sg69
I00
sg36
I01
sg62
Nsg39
I01
sg71
Nsg33
I00
sg72
Nssg73
I01
sg8
I2527457018462809534
sbtp845
sg20
(dp846
g98
I01
sg33
I00
sg126
I00
sg39
I01
sg36
I01
ssg73
I01
sbtp847
sg6
(lp848
sg20
(dp849
g98
I01
sg126
I00
sg36
I01
sg132
Nsg28
I00
sg29
Nsg133
Nsg39
I01
sg70
I01
sg62
Nsg33
I00
ssg8
I-2295254822587808930
sbtp850
sg20
(dp851
g126
I00
ssg73
I01
sbg1
(g11
g3
NtRp852
(dp853
g6
(lp854
sg8
I-1004770860418086838
sg9
Nsg10
(g1
(g87
g3
NtRp855
(dp856
g9
Nsg10
(g835
tp857
sg6
(lp858
sg20
(dp859
g98
I01
sg126
I00
sg36
I01
sg132
Nsg28
I00
sg29
Nsg133
Nsg39
I01
sg70
I01
sg62
Nsg33
I00
ssg8
I-6966707213069426431
sbg644
tp860
sg20
(dp861
g126
I00
ssg73
I01
sbg1
(g11
g3
NtRp862
(dp863
g6
(lp864
sg8
I403322254273061972
sg9
Nsg10
(g172
g833
tp865
sg20
(dp866
g126
I00
ssg73
I01
sbg1
(g11
g3
NtRp867
(dp868
g6
(lp869
sg8
I6342422317086434974
sg9
Nsg10
(g855
g135
tp870
sg20
(dp871
g126
I00
ssg73
I01
sbtp872
sg20
(dp873
g126
I00
ssg73
I01
sbg339
tp874
sg20
g223
sg73
I01
sbg1
(g11
g3
NtRp875
(dp876
g6
(lp877
sg8
I-1966684476867952769
sg9
Nsg10
(g614
g51
g1
(g2
g3
NtRp878
(dp879
g6
(lp880
sg8
I2418072008967812292
sg9
Nsg10
(g855
g1
(g11
g3
NtRp881
(dp882
g6
(lp883
sg8
I-4485294660500511357
sg9
Nsg10
(g105
g833
g1
(g134
g3
NtRp884
(dp885
g9
Nsg10
(g1
(g2
g3
NtRp886
(dp887
g6
(lp888
sg8
I2617208142888283127
sg9
Nsg10
(g629
g242
tp889
sg20
(dp890
g98
I01
sg33
I00
sg126
I00
sg39
I01
sg36
I01
ssg73
I01
sbtp891
sg6
(lp892
sg20
(dp893
g98
I01
sg126
I00
sg36
I01
sg132
Nsg28
I00
sg29
Nsg133
Nsg39
I01
sg70
I01
sg62
Nsg33
I00
ssg8
I-3576810532189527149
sbtp894
sg20
(dp895
g98
I01
sg126
I00
sg36
I01
sg132
Nsg28
I00
sg29
Nsg133
Nsg39
I01
sg70
I01
sg62
Nsg284
I00
ssg73
I01
sbg1
(g11
g3
NtRp896
(dp897
g6
(lp898
sg8
I2970654570032084979
sg9
Nsg10
(g105
g855
g1
(g87
g3
NtRp899
(dp900
g9
Nsg10
(g886
tp901
sg6
(lp902
sg20
(dp903
g98
I01
sg126
I00
sg36
I01
sg132
Nsg28
I00
sg29
Nsg133
Nsg39
I01
sg70
I01
sg62
Nsg33
I00
ssg8
I-8967383368189008016
sbtp904
sg20
(dp905
g98
I01
sg126
I00
sg36
I01
sg132
Nsg28
I00
sg29
Nsg133
Nsg39
I01
sg70
I01
sg62
Nsg284
I00
ssg73
I01
sbtp906
sg20
(dp907
g98
I01
sg126
I00
sg36
I01
sg62
Nsg29
Nsg133
Nsg39
I01
sg33
I00
ssg73
I01
sbg292
tp908
sg20
g223
sg73
I01
sbg1
(g11
g3
NtRp909
(dp910
g6
(lp911
sg8
I5265939308415170121
sg9
Nsg10
(g614
g51
g1
(g2
g3
NtRp912
(dp913
g6
(lp914
sg8
I-1109907251767182481
sg9
Nsg10
(g1
(g11
g3
NtRp915
(dp916
g6
(lp917
sg8
I-8236661925670130243
sg9
Nsg10
(g105
g855
g627
tp918
sg20
(dp919
g126
I00
ssg73
I01
sbg1
(g11
g3
NtRp920
(dp921
g6
(lp922
sg8
I-1457904243930391375
sg9
Nsg10
(g105
g855
g172
tp923
sg20
(dp924
g126
I00
ssg73
I01
sbg1
(g11
g3
NtRp925
(dp926
g6
(lp927
sg8
I5654556751788947769
sg9
Nsg10
(g105
g833
g644
tp928
sg20
(dp929
g126
I00
ssg73
I01
sbg1
(g11
g3
NtRp930
(dp931
g6
(lp932
sg8
I6949162153136955921
sg9
Nsg10
(g833
g135
tp933
sg20
(dp934
g126
I00
ssg73
I01
sbtp935
sg20
(dp936
g126
I00
ssg73
I01
sbg197
tp937
sg20
g223
sg73
I01
sbg1
(g11
g3
NtRp938
(dp939
g6
(lp940
sg8
I5501321916829846265
sg9
Nsg10
(g614
g51
g1
(g2
g3
NtRp941
(dp942
g6
(lp943
sg8
I-1048952870860952362
sg9
Nsg10
(g855
g1
(g11
g3
NtRp944
(dp945
g6
(lp946
sg8
I-4608672002231952533
sg9
Nsg10
(g833
g884
tp947
sg20
(dp948
g98
I01
sg126
I00
sg36
I01
sg132
Nsg28
I00
sg29
Nsg133
Nsg39
I01
sg70
I01
sg62
Nsg284
I00
ssg73
I01
sbg1
(g11
g3
NtRp949
(dp950
g6
(lp951
sg8
I-844068329443448391
sg9
Nsg10
(g855
g899
tp952
sg20
(dp953
g98
I01
sg126
I00
sg36
I01
sg132
Nsg28
I00
sg29
Nsg133
Nsg39
I01
sg70
I01
sg62
Nsg284
I00
ssg73
I01
sbtp954
sg20
(dp955
g98
I01
sg126
I00
sg36
I01
sg62
Nsg29
Nsg133
Nsg39
I01
sg33
I00
ssg73
I01
sbg267
tp956
sg20
g223
sg73
I01
sbtp957
sg20
g346
sg73
I01
sbg348
tp958
sg20
g223
sg73
I01
sbg1
(g11
g3
NtRp959
(dp960
g6
(lp961
sg8
I5601895711664253234
sg9
Nsg10
(g1
(g15
g3
NtRp962
((I0
S'adf7bbec3b921L'
I-52
I52
t(dp963
g18
I53
sg6
(lp964
sg8
I-6012096219562858761
sg9
Nsg10
(tsg20
(dp965
g22
I01
sg23
I00
sg24
I01
sg25
I00
sg61
I00
sg27
I00
sg28
I00
sg29
I00
sg30
I00
sg31
I01
sg32
I00
sg33
I00
sg34
I00
sg35
I01
sg36
I01
sg37
I00
sg38
I01
sg39
I01
sg64
I01
sg41
I00
sg372
I01
sg43
I01
sstbg1
(g2
g3
NtRp966
(dp967
g6
(lp968
sg8
I-8231016230756464453
sg9
Nsg10
(g1
(g11
g3
NtRp969
(dp970
g6
(lp971
sg8
I-5352771822610831061
sg9
Nsg10
(g614
g74
g1
(g2
g3
NtRp972
(dp973
g6
(lp974
sg8
I2873253428050163153
sg9
Nsg10
(g1
(g11
g3
NtRp975
(dp976
g6
(lp977
sg8
I-7246792082839972224
sg9
Nsg10
(g187
g1
(g134
g3
NtRp978
(dp979
g9
Nsg10
(g1
(g2
g3
NtRp980
(dp981
g6
(lp982
sg8
I550786553912183204
sg9
Nsg10
(g101
g838
tp983
sg20
(dp984
g98
I01
sg33
I00
sg126
I00
sg39
I01
sg36
I01
ssg73
I01
sbtp985
sg6
(lp986
sg20
(dp987
g98
I01
sg126
I00
sg36
I01
sg132
Nsg28
I00
sg29
Nsg133
Nsg39
I01
sg70
I01
sg62
Nsg33
I00
ssg8
I4939634126944049754
sbtp988
sg20
(dp989
g126
I00
ssg73
I01
sbg1
(g11
g3
NtRp990
(dp991
g6
(lp992
sg8
I-981749515332223484
sg9
Nsg10
(g627
g978
tp993
sg20
(dp994
g126
I00
ssg73
I01
sbg1
(g11
g3
NtRp995
(dp996
g6
(lp997
sg8
I4298877421863256978
sg9
Nsg10
(g1
(g87
g3
NtRp998
(dp999
g9
Nsg10
(g980
tp1000
sg6
(lp1001
sg20
(dp1002
g98
I01
sg126
I00
sg36
I01
sg132
Nsg28
I00
sg29
Nsg133
Nsg39
I01
sg70
I01
sg62
Nsg33
I00
ssg8
I867438428019368829
sbg154
tp1003
sg20
(dp1004
g126
I00
ssg73
I01
sbg1
(g11
g3
NtRp1005
(dp1006
g6
(lp1007
sg8
I6898620034954224742
sg9
Nsg10
(g105
g998
g644
tp1008
sg20
(dp1009
g126
I00
ssg73
I01
sbtp1010
sg20
(dp1011
g126
I00
ssg73
I01
sbg197
tp1012
sg20
g223
sg73
I01
sbg1
(g11
g3
NtRp1013
(dp1014
g6
(lp1015
sg8
I-5285169543187955144
sg9
Nsg10
(g614
g74
g1
(g2
g3
NtRp1016
(dp1017
g6
(lp1018
sg8
I3951045944336782499
sg9
Nsg10
(g1
(g11
g3
NtRp1019
(dp1020
g6
(lp1021
sg8
I-8533396620085502588
sg9
Nsg10
(g105
g998
g1
(g134
g3
NtRp1022
(dp1023
g9
Nsg10
(g1
(g2
g3
NtRp1024
(dp1025
g6
(lp1026
sg8
I1295191058468115103
sg9
Nsg10
(g629
g696
tp1027
sg20
(dp1028
g98
I01
sg33
I00
sg126
I00
sg39
I01
sg36
I01
ssg73
I01
sbtp1029
sg6
(lp1030
sg20
(dp1031
g98
I01
sg126
I00
sg36
I01
sg132
Nsg28
I00
sg29
Nsg133
Nsg39
I01
sg70
I01
sg62
Nsg33
I00
ssg8
I-5091691349903294773
sbtp1032
sg20
(dp1033
g126
I00
ssg73
I01
sbg1
(g11
g3
NtRp1034
(dp1035
g6
(lp1036
sg8
I1477668513062102738
sg9
Nsg10
(g1
(g87
g3
NtRp1037
(dp1038
g9
Nsg10
(g1024
tp1039
sg6
(lp1040
sg20
(dp1041
g98
I01
sg126
I00
sg36
I01
sg132
Nsg28
I00
sg29
Nsg133
Nsg39
I01
sg70
I01
sg62
Nsg33
I00
ssg8
I3359754366718009640
sbg978
tp1042
sg20
(dp1043
g126
I00
ssg73
I01
sbg1
(g11
g3
NtRp1044
(dp1045
g6
(lp1046
sg8
I7960967393010156432
sg9
Nsg10
(g105
g978
tp1047
sg20
(dp1048
g98
I01
sg126
I00
sg36
I01
sg132
Nsg28
I00
sg29
Nsg133
Nsg39
I01
sg70
I01
sg62
Nsg284
I00
ssg73
I01
sbtp1049
sg20
(dp1050
g126
I00
ssg73
I01
sbg292
tp1051
sg20
g223
sg73
I01
sbg1
(g11
g3
NtRp1052
(dp1053
g6
(lp1054
sg8
I-1219754140598529222
sg9
Nsg10
(g614
g74
g1
(g2
g3
NtRp1055
(dp1056
g6
(lp1057
sg8
I3586772832509837061
sg9
Nsg10
(g1
(g11
g3
NtRp1058
(dp1059
g6
(lp1060
sg8
I-3725180089355886948
sg9
Nsg10
(g998
g1022
tp1061
sg20
(dp1062
g126
I00
ssg73
I01
sbg1
(g11
g3
NtRp1063
(dp1064
g6
(lp1065
sg8
I-2231123404400001108
sg9
Nsg10
(g105
g1037
g978
tp1066
sg20
(dp1067
g126
I00
ssg73
I01
sbg1044
tp1068
sg20
(dp1069
g126
I00
ssg73
I01
sbg267
tp1070
sg20
g223
sg73
I01
sbg1
(g11
g3
NtRp1071
(dp1072
g6
(lp1073
sg8
I42694702035527689
sg9
Nsg10
(g614
g74
g1
(g2
g3
NtRp1074
(dp1075
g6
(lp1076
sg8
I-8465801248792544907
sg9
Nsg10
(g1
(g11
g3
NtRp1077
(dp1078
g6
(lp1079
sg8
I-3594249431165515055
sg9
Nsg10
(g105
g978
g154
tp1080
sg20
(dp1081
g126
I00
ssg73
I01
sbg1
(g11
g3
NtRp1082
(dp1083
g6
(lp1084
sg8
I-2684755842204718371
sg9
Nsg10
(g105
g978
g644
tp1085
sg20
(dp1086
g126
I00
ssg73
I01
sbg1
(g11
g3
NtRp1087
(dp1088
g6
(lp1089
sg8
I3228420948001598793
sg9
Nsg10
(g105
g998
g627
tp1090
sg20
(dp1091
g126
I00
ssg73
I01
sbg1
(g11
g3
NtRp1092
(dp1093
g6
(lp1094
sg8
I5298879969141194211
sg9
Nsg10
(g998
g187
tp1095
sg20
(dp1096
g126
I00
ssg73
I01
sbtp1097
sg20
(dp1098
g126
I00
ssg73
I01
sbg339
tp1099
sg20
g223
sg73
I01
sbtp1100
sg20
g346
sg73
I01
sbg348
tp1101
sg20
g223
sg73
I01
sbg1
(g11
g3
NtRp1102
(dp1103
g6
(lp1104
sg8
I8965068613662314916
sg9
Nsg10
(g1
(g15
g3
NtRp1105
((I1
S'1ca8c32564397L'
I-49
I49
t(dp1106
g18
I53
sg6
(lp1107
sg8
I4765400407680424372
sg9
Nsg10
(tsg20
(dp1108
g22
I01
sg23
I00
sg24
I01
sg25
I00
sg26
I01
sg27
I00
sg28
I00
sg29
I01
sg30
I00
sg31
I01
sg32
I00
sg33
I00
sg34
I00
sg35
I01
sg36
I01
sg37
I00
sg38
I01
sg39
I01
sg40
I00
sg41
I00
sg42
I00
sg43
I01
sstbg1
(g2
g3
NtRp1109
(dp1110
g6
(lp1111
sg8
I-3866170019136291386
sg9
Nsg10
(g1
(g11
g3
NtRp1112
(dp1113
g6
(lp1114
sg8
I-9004408112796235811
sg9
Nsg10
(g422
g614
g1
(g2
g3
NtRp1115
(dp1116
g6
(lp1117
sg8
I8958621508407270614
sg9
Nsg10
(g1
(g87
g3
NtRp1118
(dp1119
g9
Nsg10
(g838
tp1120
sg6
(lp1121
sg20
(dp1122
g98
I01
sg126
I00
sg36
I01
sg132
Nsg62
Nsg29
Nsg133
Nsg39
I01
sg70
I01
sg28
I00
sg33
I00
ssg8
I-1567736957672041685
sbg1
(g11
g3
NtRp1123
(dp1124
g6
(lp1125
sg8
I-1202604973190679077
sg9
Nsg10
(g105
g1
(g134
g3
NtRp1126
(dp1127
g9
Nsg10
(g1
(g2
g3
NtRp1128
(dp1129
g6
(lp1130
sg8
I7977560976329703336
sg9
Nsg10
(g629
g1
(g11
g3
NtRp1131
(dp1132
g6
(lp1133
sg8
I7315707403072473036
sg9
Nsg10
(g105
g838
tp1134
sg20
(dp1135
g98
I01
sg33
I00
sg126
I00
sg39
I01
sg36
I01
ssg73
I01
sbtp1136
sg20
(dp1137
g98
I01
sg33
I00
sg126
I00
sg39
I01
sg36
I01
ssg73
I01
sbtp1138
sg6
(lp1139
sg20
(dp1140
g98
I01
sg126
I00
sg36
I01
sg132
Nsg28
I00
sg29
Nsg133
Nsg39
I01
sg70
I01
sg62
Nsg33
I00
ssg8
I-7578563514399247898
sbg431
tp1141
sg20
(dp1142
g98
I01
sg126
I00
sg36
I01
sg132
Nsg28
I00
sg29
Nsg133
Nsg39
I01
sg70
I01
sg62
Nsg284
I00
ssg73
I01
sbg1
(g11
g3
NtRp1143
(dp1144
g6
(lp1145
sg8
I88784447789524139
sg9
Nsg10
(g105
g1
(g87
g3
NtRp1146
(dp1147
g9
Nsg10
(g1128
tp1148
sg6
(lp1149
sg20
(dp1150
g98
I01
sg126
I00
sg36
I01
sg132
Nsg28
I00
sg29
Nsg133
Nsg39
I01
sg70
I01
sg62
Nsg33
I00
ssg8
I-7120905495490274551
sbg448
tp1151
sg20
(dp1152
g98
I01
sg126
I00
sg36
I01
sg132
Nsg28
I00
sg29
Nsg133
Nsg39
I01
sg70
I01
sg62
Nsg284
I00
ssg73
I01
sbtp1153
sg20
(dp1154
g98
I01
sg126
I00
sg36
I01
sg62
Nsg29
Nsg133
Nsg39
I01
sg33
I00
ssg73
I01
sbg292
tp1155
sg20
g223
sg73
I01
sbg1
(g11
g3
NtRp1156
(dp1157
g6
(lp1158
sg8
I-3675900232876157385
sg9
Nsg10
(g422
g614
g1
(g2
g3
NtRp1159
(dp1160
g6
(lp1161
sg8
I8325659633277667777
sg9
Nsg10
(g1
(g11
g3
NtRp1162
(dp1163
g6
(lp1164
sg8
I-3696955512512683079
sg9
Nsg10
(g105
g1146
tp1165
sg20
(dp1166
g98
I01
sg126
I00
sg36
I01
sg132
Nsg28
I00
sg29
Nsg133
Nsg39
I01
sg70
I01
sg62
Nsg284
I00
ssg73
I01
sbg1
(g11
g3
NtRp1167
(dp1168
g6
(lp1169
sg8
I2333641987730962615
sg9
Nsg10
(g105
g1
(g87
g3
NtRp1170
(dp1171
g9
Nsg10
(g1
(g2
g3
NtRp1172
(dp1173
g6
(lp1174
sg8
I7751945520902822286
sg9
Nsg10
(g433
g1131
tp1175
sg20
(dp1176
g98
I01
sg33
I00
sg126
I00
sg39
I01
sg36
I01
ssg73
I01
sbtp1177
sg6
(lp1178
sg20
(dp1179
g98
I01
sg126
I00
sg36
I01
sg132
Nsg28
I00
sg29
Nsg133
Nsg39
I01
sg70
I01
sg62
Nsg33
I00
ssg8
I-6545831172530433605
sbtp1180
sg20
(dp1181
g98
I01
sg126
I00
sg36
I01
sg132
Nsg28
I00
sg29
Nsg133
Nsg39
I01
sg70
I01
sg62
Nsg284
I00
ssg73
I01
sbg1
(g11
g3
NtRp1182
(dp1183
g6
(lp1184
sg8
I3100761831364273466
sg9
Nsg10
(g389
g1
(g134
g3
NtRp1185
(dp1186
g9
Nsg10
(g838
tp1187
sg6
(lp1188
sg20
(dp1189
g98
I01
sg126
I00
sg36
I01
sg132
Nsg28
I00
sg29
Nsg133
Nsg39
I01
sg70
I01
sg62
Nsg33
I00
ssg8
I3806299807926585864
sbg431
tp1190
sg20
(dp1191
g126
I00
ssg73
I01
sbtp1192
sg20
(dp1193
g126
I00
ssg73
I01
sbg197
tp1194
sg20
g223
sg73
I01
sbg1
(g11
g3
NtRp1195
(dp1196
g6
(lp1197
sg8
I-3035188868203791917
sg9
Nsg10
(g422
g614
g1
(g2
g3
NtRp1198
(dp1199
g6
(lp1200
sg8
I-3311466473379351508
sg9
Nsg10
(g1118
g1
(g11
g3
NtRp1201
(dp1202
g6
(lp1203
sg8
I3859259337750417825
sg9
Nsg10
(g1146
g448
tp1204
sg20
(dp1205
g98
I01
sg126
I00
sg36
I01
sg132
Nsg28
I00
sg29
Nsg133
Nsg39
I01
sg70
I01
sg62
Nsg284
I00
ssg73
I01
sbg1
(g11
g3
NtRp1206
(dp1207
g6
(lp1208
sg8
I5875394938798664819
sg9
Nsg10
(g1126
g431
tp1209
sg20
(dp1210
g98
I01
sg126
I00
sg36
I01
sg132
Nsg28
I00
sg29
Nsg133
Nsg39
I01
sg70
I01
sg62
Nsg284
I00
ssg73
I01
sbtp1211
sg20
(dp1212
g98
I01
sg126
I00
sg36
I01
sg62
Nsg29
Nsg133
Nsg39
I01
sg33
I00
ssg73
I01
sbg267
tp1213
sg20
g223
sg73
I01
sbg1
(g11
g3
NtRp1214
(dp1215
g6
(lp1216
sg8
I-1292608721145080428
sg9
Nsg10
(g422
g614
g1
(g2
g3
NtRp1217
(dp1218
g6
(lp1219
sg8
I4972874878530078112
sg9
Nsg10
(g1
(g11
g3
NtRp1220
(dp1221
g6
(lp1222
sg8
I-7747467342237415667
sg9
Nsg10
(g389
g1118
g431
tp1223
sg20
(dp1224
g126
I00
ssg73
I01
sbg1126
g1
(g11
g3
NtRp1225
(dp1226
g6
(lp1227
sg8
I8298787170127048130
sg9
Nsg10
(g105
g1
(g134
g3
NtRp1228
(dp1229
g9
Nsg10
(g1172
tp1230
sg6
(lp1231
sg20
(dp1232
g98
I01
sg126
I00
sg36
I01
sg132
Nsg28
I00
sg29
Nsg133
Nsg39
I01
sg70
I01
sg62
Nsg33
I00
ssg8
I-4656499268518926184
sbtp1233
sg20
(dp1234
g98
I01
sg126
I00
sg36
I01
sg132
Nsg28
I00
sg29
Nsg133
Nsg39
I01
sg70
I01
sg62
Nsg284
I00
ssg73
I01
sbtp1235
sg20
(dp1236
g126
I00
ssg73
I01
sbg339
tp1237
sg20
g223
sg73
I01
sbtp1238
sg20
g346
sg73
I01
sbg348
tp1239
sg20
g223
sg73
I01
sbtp1240
sg20
g346
sg73
I01
sb.