(iSomeUtils.numericFunctionClass
NF
p1
(dp2
S'lowValue'
p3
F9.2454766505989383e-06
sS'DataBase'
p4
(dp5
F0.15178299017205832
F0.38979002833366394
sF0.76087499191020791
F0.24165306985378265
sF0.82677674947531921
F0.23007231950759888
sF0.093869324433021095
F0.41772529482841492
sF0.21768474773716961
F0.36545747518539429
sF0.3494882628673921
F0.32718360424041748
sF0.41539002043250339
F0.31062376499176025
sF0.81080056582317095
F0.23284749686717987
sF0.48129177799761469
F0.29541483521461487
sF0.87670232338828225
F0.22145944833755493
sF0.94260408095339354
F0.21021926403045654
sF0.077893140780872949
F0.42768958210945129
sF0.99252965486635658
F0.20140497386455536
sF0.015985429128798745
F0.49950945377349854
sF0.46531559434546643
F0.2989422082901001
sF0.13580680651991017
F0.39665138721466064
sF0.25163413799798451
F0.35470640659332275
sF0.20170856408502136
F0.37104347348213196
sF0.3175358955630958
F0.33567473292350769
sF0.54919055851924448
F0.28099331259727478
sF0.61509231608435577
F0.26813280582427979
sF0.68099407364946707
F0.25579264760017395
sF0.013988406172280254
F0.50513982772827148
sF0.66501788999731881
F0.25878080725669861
sF0.0040032913896875799
F0.54770004749298096
sF0.73091964756243011
F0.24693915247917175
sF0.069905048954798876
F0.43301442265510559
sF0.97455644825768994
F0.20462235808372498
sF0.36746146947605884
F0.32250651717185974
sF0.64904170634517055
F0.26174035668373108
sF0.71494346391028185
F0.2496238499879837
sF0.43336322704117014
F0.30631273984909058
sF0.78084522147539315
F0.23799522221088409
sF0.84674697904050444
F0.22664135694503784
sF0.91264873660561574
F0.2153383195400238
sF0.18573238043287321
F0.37658944725990295
sF0.89667255295346748
F0.21807444095611572
sF0.96257431051857878
F0.20671625435352325
sF0.41738704338902188
F0.3101544976234436
sF0.48328880095413318
F0.29500952363014221
sF0.51923521417146667
F0.2871212363243103
sF0.50325903051931842
F0.29059669375419617
sF0.56916078808442971
F0.27711376547813416
sF0.16975619678072507
F0.38249301910400391
sF0.253631160954503
F0.35411298274993896
sF0.3195329185196143
F0.33510541915893555
sF0.55318460443228146
F0.28021231293678284
sF0.23565795434583625
F0.35974371433258057
sF0.61908636199739275
F0.2673301100730896
sF0.38543467608472559
F0.3178965151309967
sF0.68498811956250405
F0.25508883595466614
sF0.59711910947568902
F0.27174234390258789
sF0.75088987712761535
F0.24336723983287811
sF0.011991383215761653
F0.5113685131072998
sF0.033958635737465492
F0.46778792142868042
sF0.80081545104057839
F0.2346271425485611
sF0.16576215086768797
F0.38412743806838989
sF0.30355673486746604
F0.33949899673461914
sF0.93261896617080098
F0.21194180846214294
sF0.36945849243257733
F0.32199642062187195
sF0.43536024999768863
F0.30580669641494751
sF0.85074102495354142
F0.22599510848522186
sF0.11983062286776192
F0.40399068593978882
sF0.91664278251865272
F0.21465186774730682
sF0.98254454008376402
F0.20317453145980835
sF0.15378001312857681
F0.38897219300270081
sF0.21968177069368811
F0.36484596133232117
sF0.83875888721443037
F0.22798560559749603
sF0.48528582391065167
F0.2945534884929657
sF0.27160436756316975
F0.34866985678672791
sF0.52322926008450366
F0.28633561730384827
sF0.33750612512828104
F0.33038049936294556
sF0.58913101764961495
F0.27331459522247314
sF0.65503277521472625
F0.26054084300994873
sF0.72093453277983754
F0.2486652284860611
sF0.11184253104168784
F0.40778586268424988
sF0.13780382947642866
F0.39576408267021179
sF0.63905659156257799
F0.26357463002204895
sF0.70495834912768929
F0.25141918659210205
sF0.25562818391102149
F0.353464275598526
sF0.77086010669280058
F0.23984789848327637
sF0.20370558704153996
F0.37032818794250488
sF0.32152994147613279
F0.33455497026443481
sF0.38743169904124408
F0.31742197275161743
sF0.0099943602592431624
F0.5181429386138916
sF0.061916957128724803
F0.4389360249042511
sF0.75488392304065233
F0.24271750450134277
sF0.45333345660635538
F0.30156323313713074
sF0.82078568060576362
F0.23115372657775879
sF0.88668743817087492
F0.21963208913803101
sF0.95258919573598622
F0.20845706760883331
sF0.93661301208383796
F0.21129851043224335
sF0.1897264263459103
F0.37513342499732971
sF0.10385443921561377
F0.4120134711265564
sF0.43735727295420712
F0.30533427000045776
sF0.1877294033893917
F0.3758719265460968
sF0.55917567330183715
F0.27911713719367981
sF0.057922911215687711
F0.44243144989013672
sF0.54319948964968889
F0.28222227096557617
sF0.1577740590416139
F0.38735857605934143
sF0.27360139051968824
F0.34810546040534973
sF0.52722330599754064
F0.28547069430351257
sF0.33950314808479953
F0.32980173826217651
sF0.59312506356265193
F0.27252516150474548
sF0.65902682112776323
F0.25982666015625
sF0.40540490564991083
F0.31309846043586731
sF0.72492857869287453
F0.2479405552148819
sF0.79083033625798582
F0.23628683388233185
sF0.85673209382309712
F0.22492921352386475
sF0.17175321973724356
F0.38179102540016174
sF0.77485415260583757
F0.23909901082515717
sF0.84075591017094886
F0.22763217985630035
sF0.32352696443265128
F0.33399826288223267
sF0.0079973373027246719
F0.52566385269165039
sF0.23765497730235485
F0.35912629961967468
sF0.38942872199776257
F0.31689867377281189
sF0.45533047956287387
F0.30114805698394775
sF0.8906814840839119
F0.21899448335170746
sF0.89467552999694899
F0.21836943924427032
sF0.095866347389539697
F0.4165092408657074
sF0.087878255563465624
F0.42137885093688965
sF0.24564306912842893
F0.35662633180618286
sF0.15577703608509541
F0.3881295919418335
sF0.81679163469272664
F0.23180612921714783
sF0.29157459712835498
F0.34285452961921692
sF0.049934819389613638
F0.44979530572891235
sF0.56316971921487413
F0.27828127145767212
sF0.94859514982294912
F0.20917744934558868
sF0.62907147677998543
F0.26548519730567932
sF0.69497323434509672
F0.25327175855636597
sF0.67899705069294847
F0.25619342923164368
sF0.74489880825805976
F0.2444169819355011
sF0.27559841347620673
F0.34742715954780579
sF0.07989016373739144
F0.42641115188598633
sF0.66302086704080021
F0.25914293527603149
sF0.40740192860642932
F0.31260305643081665
sF0.72892262460591151
F0.24727149307727814
sF0.023973520954872818
F0.48215797543525696
sF0.47330368617154062
F0.29710996150970459
sF0.8607261397361341
F0.22422751784324646
sF0.9266278973012454
F0.21294538676738739
sF0.13980085243294715
F0.39491984248161316
sF0.085881232606947022
F0.4225042462348938
sF0.045940773476576546
F0.45405006408691406
sF0.91065171364909714
F0.21567049622535706
sF0.97655347121420844
F0.20424094796180725
sF0.39142574495428106
F0.31637158989906311
sF0.59911613243220752
F0.2713572084903717
sF0.099860393302576678
F0.41415464878082275
sF0.45732750251939236
F0.30068615078926086
sF0.071902071911317367
F0.431661456823349
sF0.53321437486709633
F0.28422051668167114
sF0.51723819121494807
F0.28750085830688477
sF0.58313994878005937
F0.27444815635681152
sF0.041946727563539565
F0.45829162001609802
sF0.29357162008487347
F0.3422892689704895
sF0.56716376512791111
F0.27755048871040344
sF0.35947337764998477
F0.32458168268203735
sF0.63306552269302241
F0.26469942927360535
sF0.69896728025813371
F0.25253817439079285
sF0.42537513521509607
F0.30824539065361023
sF0.764869037823245
F0.24093404412269592
sF0.30155971191094755
F0.33999797701835632
sF9.2454766505989383e-06
F0.66669082641601562
sF0.90665766773606016
F0.21634690463542938
sF0.063913980085243294
F0.43741628527641296
sF0.81479461173620804
F0.23213808238506317
sF0.88069636930131934
F0.22073951363563538
sF0.34349719399783651
F0.32879531383514404
sF0.40939895156294781
F0.31209415197372437
sF0.05392886530265073
F0.44599619507789612
sF0.47530070912805911
F0.29670962691307068
sF0.86472018564917108
F0.22352463006973267
sF0.93062194321428238
F0.21226213872432709
sF0.99652370077939367
F0.20064657926559448
sF0.037952681650502473
F0.46275368332862854
sF0.17375024269376205
F0.38100919127464294
sF0.23965200025887334
F0.35849875211715698
sF0.31154482669354022
F0.33736386895179749
sF0.53720842078013331
F0.28341871500015259
sF0.60311017834524461
F0.27056914567947388
sF0.4772977320845776
F0.2962806224822998
sF0.6690119359103559
F0.25802093744277954
sF0.7349136934754672
F0.24621193110942841
sF0.50126200756279993
F0.29099780321121216
sF0.12182764582428052
F0.40301647782325745
sF0.65303575225820765
F0.26093119382858276
sF0.71893750982331894
F0.24899338185787201
sF0.78483926738843024
F0.23733954131603241
sF0.29556864304139197
F0.34167751669883728
sF0.2236758166067252
F0.36358457803726196
sF0.36147040060650326
F0.32410129904747009
sF0.9565832416490232
F0.20779052376747131
sF0.70296132617117069
F0.25177380442619324
sF0.42737215817161456
F0.30774378776550293
sF0.76886308373628198
F0.24020953476428986
sF0.83476484130139328
F0.22876657545566559
sF0.49327391573672585
F0.29271191358566284
sF0.90066659886650458
F0.2173997163772583
sF0.96656835643161587
F0.20601551234722137
sF0.16376512791116948
F0.38490381836891174
sF0.95059217277946761
F0.20881317555904388
sF0.4113959745194663
F0.31161201000213623
sF0.11383955399820633
F0.40681907534599304
sF0.14179787538946576
F0.39397311210632324
sF0.26361627573709567
F0.35104456543922424
sF0.20769963295457694
F0.36889058351516724
sF0.50725307643235551
F0.2896307110786438
sF0.57315483399746681
F0.27636724710464478
sF0.065911003041761784
F0.43606549501419067
sF0.55717865034531855
F0.27950900793075562
sF0.62308040791042985
F0.26658317446708679
sF0.31354184965005871
F0.33676978945732117
sF0.54120246669317029
F0.28262162208557129
sF0.60710422425828159
F0.26977461576461792
sF0.37944360721517001
F0.31936883926391602
sF0.67300598182339288
F0.25731992721557617
sF0.73890773938850418
F0.24546661972999573
sF0.10585146217213226
F0.41090956330299377
sF0.80480949695361548
F0.23391547799110413
sF0.87071125451872677
F0.22250629961490631
sF0.1258216917373175
F0.40122675895690918
sF0.19172344930242879
F0.3744940459728241
sF0.85473507086657852
F0.22530372440814972
sF0.92063682843168981
F0.2139526903629303
sF0.36346742356302175
F0.32355424761772156
sF0.42936918112813305
F0.30728614330291748
sF0.49527093869324434
F0.29225432872772217
sF0.90466064477954156
F0.21669873595237732
sF0.97056240234465285
F0.20531359314918518
sF0.46132154843242945
F0.29979100823402405
sF0.097863370346058187
F0.41537711024284363
sF0.17574726565028065
F0.38030675053596497
sF0.26561329869361416
F0.35041844844818115
sF0.51124712234539249
F0.28873854875564575
sF0.33151505625872546
F0.33199217915534973
sF0.57714887991050379
F0.27556297183036804
sF0.24164902321539183
F0.35783359408378601
sF0.64305063747561508
F0.26282012462615967
sF0.70895239504072638
F0.25066524744033813
sF0.69297621138857812
F0.25364843010902405
sF0.75887796895368942
F0.24202558398246765
sF0.82477972651880072
F0.23042520880699158
sF0.3155388726065772
F0.33620885014533997
sF0.3814406301716885
F0.31893488764762878
sF0.74290178530154116
F0.2447638064622879
sF0.4473423877367998
F0.3030114471912384
sF0.80880354286665246
F0.23321714997291565
sF0.7329166705189486
F0.24653694033622742
sF0.87470530043176375
F0.221795454621315
sF0.94060705799687505
F0.21058161556720734
sF0.15977108199813239
F0.38650727272033691
sF0.26960734460665114
F0.34926533699035645
sF0.22567283956324369
F0.36285752058029175
sF0.99053263190983809
F0.2017756849527359
sF0.43136620408465154
F0.30683916807174683
sF0.49726796164976284
F0.29188483953475952
sF0.2216787936502066
F0.36421981453895569
sF0.28358650530228091
F0.34513017535209656
sF0.54719353556272599
F0.28143507242202759
sF0.081887186693910041
F0.42500191926956177
sF0.61309529312783728
F0.26855561137199402
sF0.35747635469346617
F0.32517048716545105
sF0.53121735191057773
F0.28464964032173157
sF0.14379489834598425
F0.39318746328353882
sF0.26761032165013265
F0.34983903169631958
sF0.20969665591109554
F0.36817967891693115
sF0.33351207921524395
F0.33143246173858643
sF0.58114292582354077
F0.27482694387435913
sF0.64704468338865206
F0.2621002197265625
sF0.39941383678035525
F0.31451612710952759
sF0.71294644095376336
F0.25000369548797607
sF0.77884819851887466
F0.23837578296661377
sF0.84474995608398595
F0.22700750827789307
sF0.97255942530117145
F0.20497067272663116
sF0.8287737724318377
F0.22976002097129822
sF0.073899094867835857
F0.43032240867614746
sF0.96057728756206029
F0.20708230137825012
sF0.38343765312820699
F0.3184143602848053
sF0.44933941069331829
F0.30254882574081421
sF0.12781871469383599
F0.40036025643348694
sF0.94460110390991203
F0.20987801253795624
sF0.19372047225894728
F0.37373772263526917
sF0.0060003143462060704
F0.53430956602096558
sF0.49926498460628133
F0.2914557158946991
sF0.2855835282587994
F0.34456151723861694
sF0.55118758147576297
F0.28060129284858704
sF0.3514852858239107
F0.3266741931438446
sF0.61708933904087426
F0.26771336793899536
sF0.68299109660598556
F0.25544068217277527
sF0.74889285417109686
F0.24373549222946167
sF0.17774428860679914
F0.37956923246383667
sF0.0020062684331690894
F0.56714487075805664
sF0.79881842808405989
F0.23496134579181671
sF0.33550910217176244
F0.33091038465499878
sF0.24364604617191044
F0.35720691084861755
sF0.40141085973687374
F0.31403255462646484
sF0.71694048686680034
F0.24930624663829803
sF0.78284224443191164
F0.2376762330532074
sF0.46731261730198503
F0.29845821857452393
sF0.84874400199702293
F0.22632686793804169
sF0.21369070182413252
F0.36681938171386719
sF0.91464575956213423
F0.21498660743236542
sF0.98054751712724553
F0.20356087386608124
sF0.34150017104131802
F0.3293323814868927
sF0.96457133347509727
F0.20634475350379944
sF0.45133643364983678
F0.30204281210899353
sF0.98653858599680111
F0.20247122645378113
sF0.12382466878079901
F0.40208294987678528
sF0.16176810495465088
F0.38571551442146301
sF0.8926785070404305
F0.21869246661663055
sF0.52123223712798517
F0.28674086928367615
sF0.22766986251976218
F0.36226323246955872
sF0.58713399469309646
F0.27367228269577026
sF0.10185741625909528
F0.41309508681297302
sF0.5711578110409482
F0.27672550082206726
sF0.6370595686060595
F0.2639642059803009
sF0.7948243821710228
F0.23564688861370087
sF0.28758055121531789
F0.34395107626914978
sF0.55518162738879995
F0.27986186742782593
sF0.35348230878042919
F0.32617396116256714
sF0.62108338495391124
F0.26694804430007935
sF0.68698514251902254
F0.25474381446838379
sF0.41938406634554048
F0.30968537926673889
sF0.75288690008413384
F0.24303385615348816
sF0.81878865764924513
F0.23147545754909515
sF0.11583657695472493
F0.40596804022789001
sF0.88469041521435643
F0.21997623145580292
sF0.14579192130250274
F0.3923889696598053
sF0.21169367886761403
F0.36749640107154846
sF0.93461598912731947
F0.21161888539791107
sF0.40340788269339223
F0.31356894969940186
sF0.46930964025850352
F0.29803869128227234
sF0.91863980547517121
F0.21429617702960968
sF0.98454156304028251
F0.20285321772098541
sF0.10784848512865086
F0.40991917252540588
sF0.12981573765035459
F0.39950013160705566
sF0.19571749521546589
F0.37309437990188599
sF0.30555375782398464
F0.33899766206741333
sF0.52522628304102215
F0.28585338592529297
sF0.59112804060613344
F0.27289155125617981
sF0.37145551538909594
F0.32149991393089294
sF0.65702979817124474
F0.26017755270004272
sF0.059919934172206202
F0.44059714674949646
sF0.72293155573635604
F0.24829679727554321
sF0.20570260999805845
F0.36960655450820923
sF0.86671720860568968
F0.22316816449165344
sF0.32552398738916988
F0.33351290225982666
sF0.70695537208420778
F0.25103771686553955
sF0.77285712964931907
F0.23945383727550507
sF0.28957757417183638
F0.34335926175117493
sF0.35547933173694768
F0.32563111186027527
sF0.42138108930205898
F0.30923190712928772
sF0.75688094599717082
F0.24234427511692047
sF0.82278270356228211
F0.23075051605701447
sF0.48728284686717027
F0.29410251975059509
sF0.88868446112739341
F0.2193094789981842
sF0.95458621869250471
F0.20812961459159851
sF0.17974131156331763
F0.37879273295402527
sF0.055925888259169221
F0.44418454170227051
sF0.47130666321502201
F0.29759177565574646
sF0.25762520686754009
F0.35281896591186523
sF0.56117269625835564
F0.27871614694595337
sF0.62707445382346694
F0.2658422589302063
sF0.091872301476502605
F0.41889858245849609
sF0.61109827017131868
F0.26897329092025757
sF0.67700002773642998
F0.25659269094467163
sF0.30755078078050313
F0.33843755722045898
sF0.051931842346132129
F0.44804230332374573
sF0.22966688547628078
F0.36157515645027161
sF0.59512208651917042
F0.27215251326560974
sF0.37345253834561443
F0.32094764709472656
sF0.66102384408428172
F0.2594851553440094
sF0.72692560164939302
F0.24759867787361145
sF0.43935429591072572
F0.30483013391494751
sF0.79282735921450431
F0.23599234223365784
sF0.85872911677961561
F0.22460772097110748
sF0.84275293312746735
F0.22732739150524139
sF0.90865469069257865
F0.21600133180618286
sF0.083884209650428532
F0.42381742596626282
sF0.42337811225857747
F0.30870687961578369
sF0.48927986982368876
F0.29365181922912598
sF0.95858026460554169
F0.20743206143379211
sF0.14778894425902123
F0.39143559336662292
sF0.043943750520058056
F0.45596811175346375
sF0.047937796433095148
F0.45199084281921387
sF0.51524116825842958
F0.28792718052864075
sF0.68898216547554103
F0.25434744358062744
sF0.25962222982405858
F0.35225445032119751
sF0.075896117824354459
F0.42903211712837219
sF0.56516674217139262
F0.27789553999900818
sF0.63106849973650392
F0.26506826281547546
sF0.69697025730161521
F0.2529049813747406
sF0.76287201486672651
F0.24128744006156921
sF0.13181276060687308
F0.39867782592773438
sF0.0299645898244284
F0.47274330258369446
sF0.74689583121457825
F0.24405716359615326
sF0.19771451817198438
F0.37242946028709412
sF0.81279758877968955
F0.23252254724502563
sF0.30954780373702162
F0.33787134289741516
sF0.37544956130213292
F0.32039833068847656
sF0.44135131886724421
F0.30437192320823669
sF0.79682140512754129
F0.23530210554599762
sF0.86272316269265259
F0.22384226322174072
sF0.92862492025776389
F0.21259546279907227
sF0.99452667782287518
F0.20103268325328827
sF0.067908025998280386
F0.43449366092681885
sF0.97855049417072693
F0.20388743281364441
sF0.49127689278020725
F0.29315438866615295
sF0.02796756686790991
F0.47557055950164795
sF0.039949704607020964
F0.46052280068397522
sF0.27759543643272533
F0.34686648845672607
sF0.53521139782361482
F0.2838171124458313
sF0.60111315538872612
F0.27096810936927795
sF0.24764009208494742
F0.35598966479301453
sF0.66701491295383741
F0.25838580727577209
sF0.58513697173657786
F0.27406048774719238
sF0.65103872930168916
F0.26135772466659546
sF0.26161925278057707
F0.35165145993232727
sF0.32752101034568837
F0.33294647932052612
sF0.6350625456495409
F0.26432910561561584
sF0.39342276791079966
F0.31590786576271057
sF0.7009643032146522
F0.25214588642120361
sF0.76686606077976349
F0.24054884910583496
sF0.45932452547591096
F0.30020290613174438
sF0.83276781834487479
F0.22908011078834534
sF0.89866957590998608
F0.21776396036148071
sF0.025970543911391308
F0.4786965548992157
sF0.035955658693983983
F0.46504577994346619
sF0.88269339225783783
F0.2203778475522995
sF0.23166390843279927
F0.36095321178436279
sF0.37744658425865141
F0.31988149881362915
sF0.4433483418237627
F0.30390536785125732
sF0.86871423156220817
F0.22280031442642212
sF0.99852072373591216
F0.20027147233486176
sF0.50525605347583702
F0.29009032249450684
sF0.11783359991124343
F0.40491354465484619
sF0.089875278519984114
F0.4200538694858551
sF0.031961612780946891
F0.47029539942741394
sF0.14978596721553983
F0.39065074920654297
sF0.27959245938924382
F0.34625846147537231
sF0.21568772478065101
F0.36608618497848511
sF0.5392054437366518
F0.28304427862167358
sF0.34549421695435512
F0.32828357815742493
sF0.6051072013017631
F0.27017742395401001
sF0.67100895886687439
F0.25767359137535095
sF0.73691071643198569
F0.24581846594810486
sF0.80281247399709699
F0.2342742383480072
sF0.78683629034494873
F0.23698508739471436
sF0.85273804791006003
F0.22566722333431244
sF0.32951803330220686
F0.33244428038597107
sF0.39541979086731815
F0.31543603539466858
sF0.021976497998354327
F0.4859158992767334
sF0.10984550808516935
F0.40879523754119873
sF0.83676186425791177
F0.22836168110370636
sF0.8307707953883563
F0.22941042482852936
sF0.90266362182302307
F0.21704816818237305
sF0.13380978356339157
F0.39779371023178101
sF0.96856537938813436
F0.20563183724880219
sF0.19971154112850287
F0.37176495790481567
sF0.44534536478028119
F0.30345535278320312
sF0.29756566599791057
F0.34113651514053345
sF0.509250099388874
F0.28913590312004089
sF0.5751518569539853
F0.2759915292263031
sF0.64105361451909659
F0.26317715644836426
sF0.78883331330146722
F0.23666365444660187
sF0.019979475041835837
F0.48978894948959351
sF0.18173833451983612
F0.37804737687110901
sF0.62507743086694834
F0.26620468497276306
sF0.69097918843205963
F0.25400429964065552
sF0.18373535747635472
F0.37731185555458069
sF0.28158948234576231
F0.34572240710258484
sF0.34749123991087361
F0.3277294933795929
sF0.60910124721480008
F0.26937258243560791
sF0.24963711504146602
F0.35534670948982239
sF0.67500300477991138
F0.25695237517356873
sF0.4133929974759849
F0.31110143661499023
sF0.74090476234502267
F0.24511347711086273
sF0.87869934634480085
F0.22107440233230591
sF0.80680651991013397
F0.23354965448379517
sF0.4792947550410962
F0.29582524299621582
sF0.87270827747524526
F0.22212080657482147
sF0.93861003504035656
F0.21093402802944183
sF0.92463087434472679
F0.21327690780162811
sF0.9226338513882083
F0.21357731521129608
sF0.94659812686643063
F0.20952798426151276
sF0.9885356089533196
F0.20210245251655579
sF0.017982452085317235
F0.49432185292243958
sF0.39741681382383665
F0.31497848033905029
sF0.46331857138894794
F0.2993781566619873
sF0.16775917382420646
F0.38334852457046509
sF0.5451965126062075
F0.28182914853096008
sF0.23366093138931776
F0.36037260293960571
sF0.52922032895405924
F0.28507491946220398
sF0.29956268895442906
F0.34058269858360291
sF0.51324414530191098
F0.28829005360603333
sF0.57914590286702228
F0.27519512176513672
sF0.36546444651954035
F0.32303705811500549
sF0.64504766043213357
F0.2624610960483551
sF0.71094941799724487
F0.25035554170608521
sF0.77685117556235617
F0.23873697221279144
ssS'binSize'
p6
F216
sS'References'
p7
(lp8
F9.2454766505989383e-06
aF0.0020062684331690894
aF0.0040032913896875799
aF0.0060003143462060704
aF0.0079973373027246719
aF0.0099943602592431624
aF0.011991383215761653
aF0.013988406172280254
aF0.015985429128798745
aF0.017982452085317235
aF0.019979475041835837
aF0.021976497998354327
aF0.023973520954872818
aF0.025970543911391308
aF0.02796756686790991
aF0.0299645898244284
aF0.031961612780946891
aF0.033958635737465492
aF0.035955658693983983
aF0.037952681650502473
aF0.039949704607020964
aF0.041946727563539565
aF0.043943750520058056
aF0.045940773476576546
aF0.047937796433095148
aF0.049934819389613638
aF0.051931842346132129
aF0.05392886530265073
aF0.055925888259169221
aF0.057922911215687711
aF0.059919934172206202
aF0.061916957128724803
aF0.063913980085243294
aF0.065911003041761784
aF0.067908025998280386
aF0.069905048954798876
aF0.071902071911317367
aF0.073899094867835857
aF0.075896117824354459
aF0.077893140780872949
aF0.07989016373739144
aF0.081887186693910041
aF0.083884209650428532
aF0.085881232606947022
aF0.087878255563465624
aF0.089875278519984114
aF0.091872301476502605
aF0.093869324433021095
aF0.095866347389539697
aF0.097863370346058187
aF0.099860393302576678
aF0.10185741625909528
aF0.10385443921561377
aF0.10585146217213226
aF0.10784848512865086
aF0.10984550808516935
aF0.11184253104168784
aF0.11383955399820633
aF0.11583657695472493
aF0.11783359991124343
aF0.11983062286776192
aF0.12182764582428052
aF0.12382466878079901
aF0.1258216917373175
aF0.12781871469383599
aF0.12981573765035459
aF0.13181276060687308
aF0.13380978356339157
aF0.13580680651991017
aF0.13780382947642866
aF0.13980085243294715
aF0.14179787538946576
aF0.14379489834598425
aF0.14579192130250274
aF0.14778894425902123
aF0.14978596721553983
aF0.15178299017205832
aF0.15378001312857681
aF0.15577703608509541
aF0.1577740590416139
aF0.15977108199813239
aF0.16176810495465088
aF0.16376512791116948
aF0.16576215086768797
aF0.16775917382420646
aF0.16975619678072507
aF0.17175321973724356
aF0.17375024269376205
aF0.17574726565028065
aF0.17774428860679914
aF0.17974131156331763
aF0.18173833451983612
aF0.18373535747635472
aF0.18573238043287321
aF0.1877294033893917
aF0.1897264263459103
aF0.19172344930242879
aF0.19372047225894728
aF0.19571749521546589
aF0.19771451817198438
aF0.19971154112850287
aF0.20170856408502136
aF0.20370558704153996
aF0.20570260999805845
aF0.20769963295457694
aF0.20969665591109554
aF0.21169367886761403
aF0.21369070182413252
aF0.21568772478065101
aF0.21768474773716961
aF0.21968177069368811
aF0.2216787936502066
aF0.2236758166067252
aF0.22567283956324369
aF0.22766986251976218
aF0.22966688547628078
aF0.23166390843279927
aF0.23366093138931776
aF0.23565795434583625
aF0.23765497730235485
aF0.23965200025887334
aF0.24164902321539183
aF0.24364604617191044
aF0.24564306912842893
aF0.24764009208494742
aF0.24963711504146602
aF0.25163413799798451
aF0.253631160954503
aF0.25562818391102149
aF0.25762520686754009
aF0.25962222982405858
aF0.26161925278057707
aF0.26361627573709567
aF0.26561329869361416
aF0.26761032165013265
aF0.26960734460665114
aF0.27160436756316975
aF0.27360139051968824
aF0.27559841347620673
aF0.27759543643272533
aF0.27959245938924382
aF0.28158948234576231
aF0.28358650530228091
aF0.2855835282587994
aF0.28758055121531789
aF0.28957757417183638
aF0.29157459712835498
aF0.29357162008487347
aF0.29556864304139197
aF0.29756566599791057
aF0.29956268895442906
aF0.30155971191094755
aF0.30355673486746604
aF0.30555375782398464
aF0.30755078078050313
aF0.30954780373702162
aF0.31154482669354022
aF0.31354184965005871
aF0.3155388726065772
aF0.3175358955630958
aF0.3195329185196143
aF0.32152994147613279
aF0.32352696443265128
aF0.32552398738916988
aF0.32752101034568837
aF0.32951803330220686
aF0.33151505625872546
aF0.33351207921524395
aF0.33550910217176244
aF0.33750612512828104
aF0.33950314808479953
aF0.34150017104131802
aF0.34349719399783651
aF0.34549421695435512
aF0.34749123991087361
aF0.3494882628673921
aF0.3514852858239107
aF0.35348230878042919
aF0.35547933173694768
aF0.35747635469346617
aF0.35947337764998477
aF0.36147040060650326
aF0.36346742356302175
aF0.36546444651954035
aF0.36746146947605884
aF0.36945849243257733
aF0.37145551538909594
aF0.37345253834561443
aF0.37544956130213292
aF0.37744658425865141
aF0.37944360721517001
aF0.3814406301716885
aF0.38343765312820699
aF0.38543467608472559
aF0.38743169904124408
aF0.38942872199776257
aF0.39142574495428106
aF0.39342276791079966
aF0.39541979086731815
aF0.39741681382383665
aF0.39941383678035525
aF0.40141085973687374
aF0.40340788269339223
aF0.40540490564991083
aF0.40740192860642932
aF0.40939895156294781
aF0.4113959745194663
aF0.4133929974759849
aF0.41539002043250339
aF0.41738704338902188
aF0.41938406634554048
aF0.42138108930205898
aF0.42337811225857747
aF0.42537513521509607
aF0.42737215817161456
aF0.42936918112813305
aF0.43136620408465154
aF0.43336322704117014
aF0.43536024999768863
aF0.43735727295420712
aF0.43935429591072572
aF0.44135131886724421
aF0.4433483418237627
aF0.44534536478028119
aF0.4473423877367998
aF0.44933941069331829
aF0.45133643364983678
aF0.45333345660635538
aF0.45533047956287387
aF0.45732750251939236
aF0.45932452547591096
aF0.46132154843242945
aF0.46331857138894794
aF0.46531559434546643
aF0.46731261730198503
aF0.46930964025850352
aF0.47130666321502201
aF0.47330368617154062
aF0.47530070912805911
aF0.4772977320845776
aF0.4792947550410962
aF0.48129177799761469
aF0.48328880095413318
aF0.48528582391065167
aF0.48728284686717027
aF0.48927986982368876
aF0.49127689278020725
aF0.49327391573672585
aF0.49527093869324434
aF0.49726796164976284
aF0.49926498460628133
aF0.50126200756279993
aF0.50325903051931842
aF0.50525605347583702
aF0.50725307643235551
aF0.509250099388874
aF0.51124712234539249
aF0.51324414530191098
aF0.51524116825842958
aF0.51723819121494807
aF0.51923521417146667
aF0.52123223712798517
aF0.52322926008450366
aF0.52522628304102215
aF0.52722330599754064
aF0.52922032895405924
aF0.53121735191057773
aF0.53321437486709633
aF0.53521139782361482
aF0.53720842078013331
aF0.5392054437366518
aF0.54120246669317029
aF0.54319948964968889
aF0.5451965126062075
aF0.54719353556272599
aF0.54919055851924448
aF0.55118758147576297
aF0.55318460443228146
aF0.55518162738879995
aF0.55717865034531855
aF0.55917567330183715
aF0.56117269625835564
aF0.56316971921487413
aF0.56516674217139262
aF0.56716376512791111
aF0.56916078808442971
aF0.5711578110409482
aF0.57315483399746681
aF0.5751518569539853
aF0.57714887991050379
aF0.57914590286702228
aF0.58114292582354077
aF0.58313994878005937
aF0.58513697173657786
aF0.58713399469309646
aF0.58913101764961495
aF0.59112804060613344
aF0.59312506356265193
aF0.59512208651917042
aF0.59711910947568902
aF0.59911613243220752
aF0.60111315538872612
aF0.60311017834524461
aF0.6051072013017631
aF0.60710422425828159
aF0.60910124721480008
aF0.61109827017131868
aF0.61309529312783728
aF0.61509231608435577
aF0.61708933904087426
aF0.61908636199739275
aF0.62108338495391124
aF0.62308040791042985
aF0.62507743086694834
aF0.62707445382346694
aF0.62907147677998543
aF0.63106849973650392
aF0.63306552269302241
aF0.6350625456495409
aF0.6370595686060595
aF0.63905659156257799
aF0.64105361451909659
aF0.64305063747561508
aF0.64504766043213357
aF0.64704468338865206
aF0.64904170634517055
aF0.65103872930168916
aF0.65303575225820765
aF0.65503277521472625
aF0.65702979817124474
aF0.65902682112776323
aF0.66102384408428172
aF0.66302086704080021
aF0.66501788999731881
aF0.66701491295383741
aF0.6690119359103559
aF0.67100895886687439
aF0.67300598182339288
aF0.67500300477991138
aF0.67700002773642998
aF0.67899705069294847
aF0.68099407364946707
aF0.68299109660598556
aF0.68498811956250405
aF0.68698514251902254
aF0.68898216547554103
aF0.69097918843205963
aF0.69297621138857812
aF0.69497323434509672
aF0.69697025730161521
aF0.69896728025813371
aF0.7009643032146522
aF0.70296132617117069
aF0.70495834912768929
aF0.70695537208420778
aF0.70895239504072638
aF0.71094941799724487
aF0.71294644095376336
aF0.71494346391028185
aF0.71694048686680034
aF0.71893750982331894
aF0.72093453277983754
aF0.72293155573635604
aF0.72492857869287453
aF0.72692560164939302
aF0.72892262460591151
aF0.73091964756243011
aF0.7329166705189486
aF0.7349136934754672
aF0.73691071643198569
aF0.73890773938850418
aF0.74090476234502267
aF0.74290178530154116
aF0.74489880825805976
aF0.74689583121457825
aF0.74889285417109686
aF0.75088987712761535
aF0.75288690008413384
aF0.75488392304065233
aF0.75688094599717082
aF0.75887796895368942
aF0.76087499191020791
aF0.76287201486672651
aF0.764869037823245
aF0.76686606077976349
aF0.76886308373628198
aF0.77086010669280058
aF0.77285712964931907
aF0.77485415260583757
aF0.77685117556235617
aF0.77884819851887466
aF0.78084522147539315
aF0.78284224443191164
aF0.78483926738843024
aF0.78683629034494873
aF0.78883331330146722
aF0.79083033625798582
aF0.79282735921450431
aF0.7948243821710228
aF0.79682140512754129
aF0.79881842808405989
aF0.80081545104057839
aF0.80281247399709699
aF0.80480949695361548
aF0.80680651991013397
aF0.80880354286665246
aF0.81080056582317095
aF0.81279758877968955
aF0.81479461173620804
aF0.81679163469272664
aF0.81878865764924513
aF0.82078568060576362
aF0.82278270356228211
aF0.82477972651880072
aF0.82677674947531921
aF0.8287737724318377
aF0.8307707953883563
aF0.83276781834487479
aF0.83476484130139328
aF0.83676186425791177
aF0.83875888721443037
aF0.84075591017094886
aF0.84275293312746735
aF0.84474995608398595
aF0.84674697904050444
aF0.84874400199702293
aF0.85074102495354142
aF0.85273804791006003
aF0.85473507086657852
aF0.85673209382309712
aF0.85872911677961561
aF0.8607261397361341
aF0.86272316269265259
aF0.86472018564917108
aF0.86671720860568968
aF0.86871423156220817
aF0.87071125451872677
aF0.87270827747524526
aF0.87470530043176375
aF0.87670232338828225
aF0.87869934634480085
aF0.88069636930131934
aF0.88269339225783783
aF0.88469041521435643
aF0.88668743817087492
aF0.88868446112739341
aF0.8906814840839119
aF0.8926785070404305
aF0.89467552999694899
aF0.89667255295346748
aF0.89866957590998608
aF0.90066659886650458
aF0.90266362182302307
aF0.90466064477954156
aF0.90665766773606016
aF0.90865469069257865
aF0.91065171364909714
aF0.91264873660561574
aF0.91464575956213423
aF0.91664278251865272
aF0.91863980547517121
aF0.92063682843168981
aF0.9226338513882083
aF0.92463087434472679
aF0.9266278973012454
aF0.92862492025776389
aF0.93062194321428238
aF0.93261896617080098
aF0.93461598912731947
aF0.93661301208383796
aF0.93861003504035656
aF0.94060705799687505
aF0.94260408095339354
aF0.94460110390991203
aF0.94659812686643063
aF0.94859514982294912
aF0.95059217277946761
aF0.95258919573598622
aF0.95458621869250471
aF0.9565832416490232
aF0.95858026460554169
aF0.96057728756206029
aF0.96257431051857878
aF0.96457133347509727
aF0.96656835643161587
aF0.96856537938813436
aF0.97056240234465285
aF0.97255942530117145
aF0.97455644825768994
aF0.97655347121420844
aF0.97855049417072693
aF0.98054751712724553
aF0.98254454008376402
aF0.98454156304028251
aF0.98653858599680111
aF0.9885356089533196
aF0.99053263190983809
aF0.99252965486635658
aF0.99452667782287518
aF0.99652370077939367
aF0.99852072373591216
asS'refSize'
p9
I501
sS'OriginVar'
p10
S'noname'
p11
sS'upValue'
p12
F0.99852072373591216
sb.