(iSomeUtils.numericFunctionClass
NF
p1
(dp2
S'lowValue'
p3
F5.3844497092447874e-05
sS'DataBase'
p4
(dp5
F0.55389834158948958
F0.30275902152061462
sF0.64554167564074949
F0.2888202965259552
sF0.7371850096920094
F0.27364075183868408
sF0.87465001076889948
F0.24495971202850342
sF0.96629334482015938
F0.21592150628566742
sF0.27896833943570964
F0.34265843033790588
sF0.3247900064613396
F0.33578014373779297
sF0.0080228300667671837
F0.42497199773788452
sF0.043883265130303717
F0.39552760124206543
sF0.14150333835881967
F0.36623197793960571
sF0.62362696532414386
F0.29222208261489868
sF0.18732500538444974
F0.35744979977607727
sF0.23314667241007969
F0.34945893287658691
sF0.94437863450355375
F0.22403401136398315
sF0.51006892095627832
F0.30919221043586731
sF0.60171225500753822
F0.29539889097213745
sF0.69335558905879813
F0.28112468123435974
sF0.92246392418694811
F0.2317722886800766
sF0.25705362911910401
F0.34588953852653503
sF0.30287529614473396
F0.33878183364868164
sF0.095681671333189722
F0.37670066952705383
sF0.86668102519922463
F0.24728615581989288
sF0.57979754469093259
F0.29880926012992859
sF0.90054921387034248
F0.23817618191242218
sF0.99219254792160239
F0.20385861396789551
sF0.55788283437432695
F0.30219060182571411
sF0.64952616842558686
F0.28821894526481628
sF0.87863450355373685
F0.24377939105033875
sF0.97027783760499675
F0.21431152522563934
sF0.28096058582812833
F0.34237262606620789
sF0.53596812405772132
F0.30547234416007996
sF0.1654102950678441
F0.36139622330665588
sF0.21123196209347406
F0.35321995615959167
sF0.94836312728839112
F0.22266204655170441
sF0.69933232823605429
F0.28004029393196106
sF0.51405341374111568
F0.30866008996963501
sF0.60569674779237559
F0.29475581645965576
sF0.83480508292052558
F0.25508636236190796
sF0.023960801206116766
F0.40735942125320435
sF0.92644841697178548
F0.23031394183635712
sF0.25904587551152269
F0.34558781981468201
sF0.10763514968770194
F0.37375867366790771
sF0.58378203747576995
F0.29819095134735107
sF0.90453370665517985
F0.23714461922645569
sF0.99617704070643975
F0.20193302631378174
sF0.56186732715916432
F0.30145931243896484
sF0.65351066121042423
F0.28748717904090881
sF0.88261899633857421
F0.24278815090656281
sF0.97426233038983412
F0.2126145213842392
sF0.28295283222054701
F0.34200632572174072
sF0.53995261684255869
F0.30485087633132935
sF0.055836743484815821
F0.39049825072288513
sF0.86070428602196858
F0.24872422218322754
sF0.23513891880249838
F0.34917965531349182
sF0.95234762007322848
F0.22111432254314423
sF0.091697178548352354
F0.37763130664825439
sF0.51803790652595305
F0.30817899107933044
sF0.60968124057721296
F0.29413801431655884
sF0.83878957570536294
F0.25429293513298035
sF0.93043290975662285
F0.22902856767177582
sF0.26103812190394138
F0.34526771306991577
sF0.11958862804221404
F0.37101981043815613
sF0.49014645703209136
F0.31209650635719299
sF0.8985569674779238
F0.23873503506183624
sF0.81687486538875731
F0.2590516209602356
sF0.90851819944001722
F0.2360757440328598
sF0.56585181994400169
F0.3008330762386322
sF0.79496015507215168
F0.26342287659645081
sF0.88660348912341158
F0.24161985516548157
sF0.46823174671548573
F0.31516870856285095
sF0.54393710962739605
F0.30424553155899048
sF0.16740254146026279
F0.36100739240646362
sF0.061813482662071983
F0.38804540038108826
sF0.21322420848589274
F0.35281524062156677
sF0.86468877880680595
F0.24776212871074677
sF0.34072797760068918
F0.33340638875961304
sF0.52202239931079042
F0.30760708451271057
sF0.61366573336205033
F0.29361733794212341
sF0.75113073443894041
F0.27110829949378967
sF0.84277406849020031
F0.25316107273101807
sF0.93441740254146022
F0.22772777080535889
sF0.029937540383372818
F0.40312507748603821
sF0.085720439371096302
F0.3794044554233551
sF0.49213870342451005
F0.31183108687400818
sF0.86867327159164331
F0.2466500997543335
sF0.50010768899418478
F0.31064939498901367
sF0.82085935817359468
F0.25813794136047363
sF0.91250269222485458
F0.23469671607017517
sF0.56983631272883906
F0.30028137564659119
sF0.70730131380572914
F0.27872708439826965
sF0.79894464785698904
F0.26251742243766785
sF0.89058798190824895
F0.24076928198337555
sF0.47022399310790441
F0.31492155790328979
sF0.013999569244023236
F0.41782870888710022
sF0.14548783114365715
F0.36542928218841553
sF0.19130949816928711
F0.35661381483078003
sF0.23713116519491706
F0.34883946180343628
sF0.14947232392849452
F0.36451226472854614
sF0.52600689209562779
F0.30698844790458679
sF0.75511522722377777
F0.27047273516654968
sF0.84675856127503768
F0.25219342112541199
sF0.097673917725608406
F0.37627595663070679
sF0.44830928279129878
F0.31813013553619385
sF0.49413094981692873
F0.31152111291885376
sF0.82484385095843205
F0.2572149932384491
sF0.57382080551367642
F0.29969164729118347
sF0.71128580659056651
F0.27815940976142883
sF0.80292914064182641
F0.261802077293396
sF0.89457247469308632
F0.23964621126651764
sF0.4722162395003231
F0.31466299295425415
sF0.16939478785268147
F0.36062759160995483
sF0.78101443032522078
F0.26601096987724304
sF0.21521645487831143
F0.35254287719726562
sF0.87265776437648068
F0.24546751379966736
sF0.0060305836743484997
F0.42948368191719055
sF0.52999138488046516
F0.30638346076011658
sF0.66745638595735524
F0.28527101874351501
sF0.75909972000861514
F0.26984146237373352
sF0.85074305405987505
F0.25124040246009827
sF0.063805729054490667
F0.38710281252861023
sF0.10962739608012062
F0.37326020002365112
sF0.45030152918371746
F0.31785473227500916
sF0.49612319620934742
F0.31135287880897522
sF0.94637088089597243
F0.22320055961608887
sF0.82882834374326941
F0.25648260116577148
sF0.71527029937540387
F0.27743500471115112
sF0.80691363342666378
F0.2609650194644928
sF0.77105319836312725
F0.26763787865638733
sF0.42838681886711183
F0.32102698087692261
sF0.47420848589274178
F0.31434392929077148
sF0.033922033168210186
F0.40051069855690002
sF0.14748007753607584
F0.36498454213142395
sF0.19330174456170579
F0.3563285768032074
sF0.78499892311005814
F0.26535195112228394
sF0.23912341158733574
F0.34852379560470581
sF0.047867757915141085
F0.39385578036308289
sF0.53397587766530252
F0.3057464063167572
sF0.01599181563644192
F0.41500872373580933
sF0.6714408787421926
F0.28470143675804138
sF0.76308421279345251
F0.2691534161567688
sF0.85472754684471242
F0.25020059943199158
sF0.20326297652379932
F0.35461604595184326
sF0.075759207409002771
F0.38247671723365784
sF0.12158087443463284
F0.37056401371955872
sF0.4981154426017661
F0.31106913089752197
sF0.74116950247684688
F0.27288466691970825
sF0.62761145810898133
F0.29168763756752014
sF0.71925479216024124
F0.27679130434989929
sF0.81089812621150115
F0.26015713810920715
sF0.43037906525953051
F0.32073768973350525
sF0.47620073228516047
F0.31406185030937195
sF0.039898772345466238
F0.39750847220420837
sF0.1255653672194702
F0.36979153752326965
sF0.17138703424510016
F0.36033427715301514
sF0.21720870127073011
F0.3521726131439209
sF0.67542537152702997
F0.28404465317726135
sF0.37260391987938835
F0.32914572954177856
sF0.76706870557828988
F0.26832693815231323
sF0.087712685763514986
F0.3788856565952301
sF0.40846435494292488
F0.32387760281562805
sF0.45428602196855483
F0.31725895404815674
sF0.0020460908895111318
F0.44291532039642334
sF0.74515399526168424
F0.27217292785644531
sF0.6315959508938187
F0.29109767079353333
sF0.72323928494507861
F0.27612239122390747
sF0.81488261899633851
F0.25944378972053528
sF0.38654964462631924
F0.32707560062408447
sF0.4323713116519492
F0.32049649953842163
sF0.47819297867757915
F0.31385332345962524
sF0.045875511522722401
F0.39468306303024292
sF0.70132457462847297
F0.27967441082000732
sF0.19529399095412447
F0.35601052641868591
sF0.24111565797975443
F0.34815266728401184
sF0.049860004307559769
F0.39293062686920166
sF0.58776653026060743
F0.2976570725440979
sF0.67940986431186734
F0.28325566649436951
sF0.021968554813698082
F0.40918898582458496
sF0.09966616411802709
F0.37561532855033875
sF0.41045660133534356
F0.32359158992767334
sF0.45627826836097352
F0.31693905591964722
sF0.65749515399526171
F0.2868478000164032
sF0.9782468231746716
F0.21069653332233429
sF0.63558044367865607
F0.29050308465957642
sF0.72722377772991598
F0.27542474865913391
sF0.95633211285806596
F0.21976317465305328
sF0.010015076459185868
F0.42226132750511169
sF0.43436355804436788
F0.32020625472068787
sF0.48018522506999783
F0.31354522705078125
sF0.12755761361188889
F0.3693242073059082
sF0.051852250699978453
F0.39191994071006775
sF0.17337928063751884
F0.35995534062385559
sF0.70530906741331034
F0.2789720892906189
sF0.21920094766314879
F0.35183832049369812
sF5.3844497092447874e-05
F0.47743687033653259
sF0.5917510230454448
F0.29696363210678101
sF0.68339435709670471
F0.28264179825782776
sF0.77503769114796461
F0.26700487732887268
sF0.065797975446909351
F0.38624659180641174
sF0.38854189101873793
F0.32671502232551575
sF0.36662718070213229
F0.32993823289871216
sF0.41244884772776225
F0.32325348258018494
sF0.4582705147533922
F0.31665453314781189
sF0.66147964678009907
F0.28623351454734802
sF0.98223131595950897
F0.20939281582832336
sF0.54792160241223353
F0.30358719825744629
sF0.63956493646349344
F0.28979483246803284
sF0.73120827051475334
F0.27474436163902283
sF0.96031660564290333
F0.21820823848247528
sF0.39053413741115661
F0.32634231448173523
sF0.43635580443678657
F0.31990712881088257
sF0.48217747146241652
F0.31323724985122681
sF0.6176502261468878
F0.29299333691596985
sF0.19728623734654316
F0.35561493039131165
sF0.0040383372819298158
F0.43498241901397705
sF0.24310790437217311
F0.34786796569824219
sF0.50409218177902226
F0.31013086438179016
sF0.59573551583028217
F0.29627785086631775
sF0.68737884988154208
F0.28206479549407959
sF0.91648718500969206
F0.2333168089389801
sF0.027945293990954134
F0.40449139475822449
sF0.077751453801421455
F0.3816925585269928
sF0.36861942709455098
F0.32969406247138977
sF0.41444109412018093
F0.32303997874259949
sF0.46026276114581088
F0.31630811095237732
sF0.66546413956493644
F0.28561118245124817
sF0.98621580874434633
F0.20716351270675659
sF0.5519060951970709
F0.30306687951087952
sF0.64354942924833081
F0.28913784027099609
sF0.73519276329959071
F0.27393397688865662
sF0.9643010984277407
F0.21664930880069733
sF0.34670471677794534
F0.33253398537635803
sF0.3925263838035753
F0.32611829042434692
sF0.43834805082920525
F0.31966289877891541
sF0.4841697178548352
F0.31297674775123596
sF0.12954986000430757
F0.36882284283638
sF0.62163471893172517
F0.29248988628387451
sF0.17537152702993752
F0.35960346460342407
sF0.13154210639672625
F0.36833739280700684
sF0.94238638811113506
F0.22463296353816986
sF0.50807667456385963
F0.30952572822570801
sF0.59972000861511954
F0.29576602578163147
sF0.69136334266637944
F0.28147128224372864
sF0.92047167779452943
F0.23232187330722809
sF0.08970493215593367
F0.37822198867797852
sF0.37061167348696966
F0.32942661643028259
sF0.41643334051259961
F0.32267379760742188
sF0.46225500753822957
F0.31600916385650635
sF0.5778052982985139
F0.29909852147102356
sF0.78898341589489551
F0.26457202434539795
sF0.9902003015291837
F0.20485903322696686
sF0.55589058798190827
F0.3024037778377533
sF0.64753392203316817
F0.28849971294403076
sF0.87664225716131816
F0.24442876875400543
sF0.96828559121257807
F0.21516823768615723
sF0.34869696317036403
F0.33229362964630127
sF0.39451863019599398
F0.32584404945373535
sF0.44034029722162393
F0.3192811906337738
sF0.48616196424725389
F0.31273701786994934
sF0.15345681671333189
F0.36370345950126648
sF0.62561921171656254
F0.29200226068496704
sF0.19927848373896184
F0.35529696941375732
sF0.24510015076459191
F0.34757664799690247
sF0.512061167348697
F0.30892345309257507
sF0.60370450139995691
F0.29510048031806946
sF0.69534783545121681
F0.28081917762756348
sF0.83281283652810689
F0.25562179088592529
sF0.9244561705793668
F0.23110570013523102
sF0.32678225285375839
F0.3355458676815033
sF0.1116196424725393
F0.37272530794143677
sF0.10165841051044588
F0.37510812282562256
sF0.4184255869050183
F0.32240763306617737
sF0.46424725393064825
F0.31576010584831238
sF0.58178979108335127
F0.29858967661857605
sF0.90254146026276116
F0.23776006698608398
sF0.99418479431402107
F0.20281395316123962
sF0.55987508076674564
F0.30183658003807068
sF0.65151841481800554
F0.28787428140640259
sF0.88062674994615553
F0.24325220286846161
sF0.97227008399741544
F0.21327470242977142
sF0.30486754253715276
F0.33849766850471497
sF0.35068920956278271
F0.33200621604919434
sF0.39651087658841266
F0.32558763027191162
sF0.44233254361404262
F0.31895405054092407
sF0.48815421063967257
F0.31243625283241272
sF0.53796037045014
F0.30519995093345642
sF0.17736377342235621
F0.3592674732208252
sF0.22318544044798616
F0.35109809041023254
sF0.9503553736808098
F0.22187632322311401
sF0.51604566013353437
F0.30838248133659363
sF0.60768899418479427
F0.2944456934928894
sF0.78699116950247683
F0.2650471031665802
sF0.83679732931294426
F0.25468802452087402
sF0.92844066336420417
F0.22960473597049713
sF0.067790221839328035
F0.3854701817035675
sF0.11361188886495799
F0.37233120203018188
sF0.32877449924617708
F0.33527392148971558
sF0.37459616627180703
F0.32887190580368042
sF0.42041783329743698
F0.32217118144035339
sF0.46623950032306694
F0.31542551517486572
sF0.90652595304759853
F0.23668619990348816
sF0.563859573551583
F0.30114945769309998
sF0.65550290760284291
F0.28714242577552795
sF0.79296790867973299
F0.26378592848777771
sF0.8846112427309929
F0.2423190176486969
sF0.9762545767822528
F0.21148534119129181
sF0.30685978892957144
F0.33823114633560181
sF0.3526814559552014
F0.33179286122322083
sF0.39850312298083135
F0.32529354095458984
sF0.4443247900064613
F0.31867039203643799
sF0.03591427956062887
F0.39941617846488953
sF0.54194486323497737
F0.30460488796234131
sF0.15544906310575057
F0.36340057849884033
sF0.20127073013138053
F0.35508257150650024
sF0.86269653241438726
F0.24822553992271423
sF0.24709239715701059
F0.34725803136825562
sF0.14349558475123847
F0.365915447473526
sF0.18931725177686842
F0.35709470510482788
sF0.52003015291837174
F0.30790629982948303
sF0.61167348696963164
F0.29383274912834167
sF0.74913848804652172
F0.2714138925075531
sF0.84078182209778163
F0.25387305021286011
sF0.93242515614904153
F0.22835749387741089
sF0.079743700193840139
F0.38105979561805725
sF0.33076674563859576
F0.33497080206871033
sF0.37658841266422571
F0.32858297228813171
sF0.42241007968985567
F0.3218858540058136
sF0.81886711178117599
F0.25860381126403809
sF0.9105104458324359
F0.23545143008232117
sF0.56784406633642037
F0.30053317546844482
sF0.79695240146457036
F0.26290789246559143
sF0.88859573551583027
F0.24115769565105438
sF0.30885203532199013
F0.33790946006774902
sF0.35467370234762008
F0.33146166801452637
sF0.40049536937325003
F0.32505813241004944
sF0.44631703639887998
F0.31838378310203552
sF0.041891018737885033
F0.3965241014957428
sF0.13353435278914494
F0.36793708801269531
sF0.17935601981477489
F0.35892274975776672
sF0.22517768684040496
F0.35076123476028442
sF0.5240146457032091
F0.3072955310344696
sF0.019976308421279398
F0.41093161702156067
sF0.75312298083135909
F0.2707342803478241
sF0.844766314882619
F0.252695232629776
sF0.9364096489338789
F0.22712330520153046
sF0.28693732500538449
F0.34133169054985046
sF0.33275899203101444
F0.33462655544281006
sF0.3785806590566444
F0.32831704616546631
sF0.42440232608227435
F0.32160314917564392
sF0.50209993538660347
F0.31045591831207275
sF0.82285160456601336
F0.25769811868667603
sF0.91449493861727327
F0.23393271863460541
sF0.57182855912125774
F0.30003014206886292
sF0.70929356019814782
F0.27841681241989136
sF0.80093689424940773
F0.26220560073852539
sF0.89258022830066763
F0.24032127857208252
sF0.26502261468877886
F0.34460732340812683
sF0.31084428171440881
F0.33763977885246277
sF0.35666594874003876
F0.33119302988052368
sF0.40248761576566872
F0.32480114698410034
sF0.85871203962954989
F0.24933333694934845
sF0.15744130949816926
F0.36307802796363831
sF0.073766961016584087
F0.38309243321418762
sF0.870665517984062
F0.24605429172515869
sF0.24908464354942927
F0.34697499871253967
sF0.15146457032091321
F0.36412313580513
sF0.52799913848804647
F0.3067033588886261
sF0.057828989877234505
F0.38966900110244751
sF0.75710747361619646
F0.27013090252876282
sF0.84875080766745636
F0.25174605846405029
sF0.28892957139780318
F0.34094220399856567
sF0.33475123842343313
F0.33434730768203735
sF0.38057290544906308
F0.32806432247161865
sF0.42639457247469303
F0.32127749919891357
sF0.9384018953262977
F0.22639061510562897
sF0.82683609735085073
F0.25683242082595825
sF0.71327805298298519
F0.27784016728401184
sF0.80492138703424509
F0.26137593388557434
sF0.896564721085505
F0.23910114169120789
sF0.26701486108119754
F0.34432381391525269
sF0.31283652810682749
F0.33735725283622742
sF0.35865819513245745
F0.33100375533103943
sF0.4044798621580874
F0.32450520992279053
sF0.13552659918156362
F0.36759957671165466
sF0.053844497092397137
F0.39131239056587219
sF0.18134826620719358
F0.35851019620895386
sF0.78300667671763946
F0.26569610834121704
sF0.22716993323282364
F0.35042843222618103
sF0.53198363127288384
F0.30606600642204285
sF0.66944863234977392
F0.28504043817520142
sF0.76109196640103383
F0.26947775483131409
sF0.85273530045229373
F0.25084966421127319
sF0.02595304759853545
F0.40590724349021912
sF0.069782468231746719
F0.38466587662696838
sF0.29092181779022186
F0.34059861302375793
sF0.33674348481585181
F0.33400306105613708
sF0.38256515184148177
F0.32763081789016724
sF0.11560413525737667
F0.37194597721099854
sF0.45229377557613615
F0.31756839156150818
sF0.95433986646564717
F0.22034409642219543
sF0.73917725608442819
F0.27329441905021667
sF0.8308205901356881
F0.25607165694236755
sF0.10365065690286457
F0.37454530596733093
sF0.71726254576782256
F0.2771318256855011
sF0.80890587981908246
F0.26062417030334473
sF0.26900710747361622
F0.34396973252296448
sF0.31482877449924618
F0.33711531758308411
sF0.36065044152487613
F0.33069294691085815
sF0.40647210855050608
F0.32417353987693787
sF0.012007322851604552
F0.41988658905029297
sF0.15943355589058794
F0.36265316605567932
sF0.059821236269653189
F0.3887934684753418
sF0.67343312513461129
F0.28436964750289917
sF0.76507645918587119
F0.26868113875389099
sF0.8567197932371311
F0.24965697526931763
sF0.20525522291621801
F0.35417991876602173
sF0.081735946586258934
F0.38050198554992676
sF0.29291406418264054
F0.34027040004730225
sF0.3387357312082705
F0.33369714021682739
sF0.38455739823390045
F0.32739341259002686
sF0.12357312082705152
F0.37016859650611877
sF0.74316174886926556
F0.27247294783592224
sF0.62960370450140002
F0.29131361842155457
sF0.72124703855265992
F0.27642914652824402
sF0.81289037260391983
F0.25969681143760681
sF0.27099935386603491
F0.34364497661590576
sF0.31682102089166486
F0.33682474493980408
sF0.36264268791729481
F0.33044397830963135
sF0.13751884557398231
F0.36719083786010742
sF0.18334051259961237
F0.35819384455680847
sF0.7909756622873142
F0.26413902640342712
sF0.22916217962524232
F0.35016250610351562
sF0.28494507861296581
F0.34160125255584717
sF0.16341804867542542
F0.36186182498931885
sF0.58577428386818875
F0.29791322350502014
sF0.67741761791944866
F0.28365069627761841
sF0.76906095197070856
F0.26797053217887878
sF0.20923971570105537
F0.3534621000289917
sF0.99816928709885855
F0.20107981562614441
sF0.29490631057505923
F0.33996710181236267
sF0.093689424940771038
F0.37707889080047607
sF0.74714624165410293
F0.27172139286994934
sF0.63358819728623739
F0.29082047939300537
sF0.72523153133749729
F0.27571490406990051
sF0.27299160025845359
F0.34337788820266724
sF0.31881326728408355
F0.33656716346740723
sF0.3646349343097135
F0.33020135760307312
sF0.16142580228300663
F0.3622400164604187
sF0.70331682102089166
F0.27933785319328308
sF0.20724746930863669
F0.35387185215950012
sF0.58975877665302612
F0.2972743809223175
sF0.68140211070428602
F0.28297030925750732
sF0.77304544475554593
F0.26730832457542419
sF0.25107688994184796
F0.34669762849807739
sF0.29689855696747791
F0.33973485231399536
sF0.34272022399310786
F0.33308854699134827
sF0.10564290329528325
F0.37416753172874451
sF0.65948740038768039
F0.28657761216163635
sF0.98023906956709028
F0.21016797423362732
sF0.68937109627396076
F0.28174585103988647
sF0.54592935601981485
F0.30393442511558533
sF0.63757269007107475
F0.29016974568367004
sF0.72921602412233466
F0.27497532963752747
sF0.77902218393280209
F0.26635062694549561
sF0.95832435925048465
F0.21896883845329285
sF0.27498384665087228
F0.34315675497055054
sF0.32080551367650223
F0.33635187149047852
sF0.031929786775791502
F0.40135389566421509
sF0.13951109196640099
F0.36674997210502625
sF0.61565797975446912
F0.29329442977905273
sF0.18533275899203105
F0.3578418493270874
sF0.23115442601766101
F0.34985065460205078
sF0.30088304975231528
F0.33909869194030762
sF0.69734008184363561
F0.28034490346908569
sF0.59374326943786349
F0.29660439491271973
sF0.68538660348912339
F0.28235042095184326
sF0.071774714624165403
F0.38388258218765259
sF0.25306913633426664
F0.34645339846611023
sF0.2988908033598966
F0.3394126296043396
sF0.34471247038552655
F0.33285784721374512
sF0.11759638164979536
F0.37148159742355347
sF0.66347189317251776
F0.28587791323661804
sF0.98422356235192765
F0.20827427506446838
sF0.54991384880465222
F0.30334013700485229
sF0.64155718285591212
F0.28948101401329041
sF0.73320051690717203
F0.2743503749370575
sF0.96230885203532202
F0.21748268604278564
sF0.27697609304329096
F0.3429337739944458
sF0.32279776006892091
F0.33607065677642822
sF0.037906525953047554
F0.39858084917068481
sF0.61964247253930649
F0.29273858666419983
sF0.26303036829636006
F0.34498155117034912
sF0.94039414171871638
F0.22543409466743469
sF0.50608442817144095
F0.30978649854660034
sF0.59772776222270085
F0.29597696661949158
sF0.017984062028860603
F0.4130060076713562
sF0.91847943140211075
F0.23287774622440338
sF0.25506138272668533
F0.34616628289222717
sF0.083728192978677618
F0.37987795472145081
sF0.22119319405556748
F0.35146012902259827
sF0.57581305190609522
F0.29944530129432678
sF0.77702993754038341
F0.26667281985282898
sF0.98820805513676502
F0.20589731633663177
ssS'binSize'
p6
F37
sS'References'
p7
(lp8
F5.3844497092447874e-05
aF0.0020460908895111318
aF0.0040383372819298158
aF0.0060305836743484997
aF0.0080228300667671837
aF0.010015076459185868
aF0.012007322851604552
aF0.013999569244023236
aF0.01599181563644192
aF0.017984062028860603
aF0.019976308421279398
aF0.021968554813698082
aF0.023960801206116766
aF0.02595304759853545
aF0.027945293990954134
aF0.029937540383372818
aF0.031929786775791502
aF0.033922033168210186
aF0.03591427956062887
aF0.037906525953047554
aF0.039898772345466238
aF0.041891018737885033
aF0.043883265130303717
aF0.045875511522722401
aF0.047867757915141085
aF0.049860004307559769
aF0.051852250699978453
aF0.053844497092397137
aF0.055836743484815821
aF0.057828989877234505
aF0.059821236269653189
aF0.061813482662071983
aF0.063805729054490667
aF0.065797975446909351
aF0.067790221839328035
aF0.069782468231746719
aF0.071774714624165403
aF0.073766961016584087
aF0.075759207409002771
aF0.077751453801421455
aF0.079743700193840139
aF0.081735946586258934
aF0.083728192978677618
aF0.085720439371096302
aF0.087712685763514986
aF0.08970493215593367
aF0.091697178548352354
aF0.093689424940771038
aF0.095681671333189722
aF0.097673917725608406
aF0.09966616411802709
aF0.10165841051044588
aF0.10365065690286457
aF0.10564290329528325
aF0.10763514968770194
aF0.10962739608012062
aF0.1116196424725393
aF0.11361188886495799
aF0.11560413525737667
aF0.11759638164979536
aF0.11958862804221404
aF0.12158087443463284
aF0.12357312082705152
aF0.1255653672194702
aF0.12755761361188889
aF0.12954986000430757
aF0.13154210639672625
aF0.13353435278914494
aF0.13552659918156362
aF0.13751884557398231
aF0.13951109196640099
aF0.14150333835881967
aF0.14349558475123847
aF0.14548783114365715
aF0.14748007753607584
aF0.14947232392849452
aF0.15146457032091321
aF0.15345681671333189
aF0.15544906310575057
aF0.15744130949816926
aF0.15943355589058794
aF0.16142580228300663
aF0.16341804867542542
aF0.1654102950678441
aF0.16740254146026279
aF0.16939478785268147
aF0.17138703424510016
aF0.17337928063751884
aF0.17537152702993752
aF0.17736377342235621
aF0.17935601981477489
aF0.18134826620719358
aF0.18334051259961237
aF0.18533275899203105
aF0.18732500538444974
aF0.18931725177686842
aF0.19130949816928711
aF0.19330174456170579
aF0.19529399095412447
aF0.19728623734654316
aF0.19927848373896184
aF0.20127073013138053
aF0.20326297652379932
aF0.20525522291621801
aF0.20724746930863669
aF0.20923971570105537
aF0.21123196209347406
aF0.21322420848589274
aF0.21521645487831143
aF0.21720870127073011
aF0.21920094766314879
aF0.22119319405556748
aF0.22318544044798616
aF0.22517768684040496
aF0.22716993323282364
aF0.22916217962524232
aF0.23115442601766101
aF0.23314667241007969
aF0.23513891880249838
aF0.23713116519491706
aF0.23912341158733574
aF0.24111565797975443
aF0.24310790437217311
aF0.24510015076459191
aF0.24709239715701059
aF0.24908464354942927
aF0.25107688994184796
aF0.25306913633426664
aF0.25506138272668533
aF0.25705362911910401
aF0.25904587551152269
aF0.26103812190394138
aF0.26303036829636006
aF0.26502261468877886
aF0.26701486108119754
aF0.26900710747361622
aF0.27099935386603491
aF0.27299160025845359
aF0.27498384665087228
aF0.27697609304329096
aF0.27896833943570964
aF0.28096058582812833
aF0.28295283222054701
aF0.28494507861296581
aF0.28693732500538449
aF0.28892957139780318
aF0.29092181779022186
aF0.29291406418264054
aF0.29490631057505923
aF0.29689855696747791
aF0.2988908033598966
aF0.30088304975231528
aF0.30287529614473396
aF0.30486754253715276
aF0.30685978892957144
aF0.30885203532199013
aF0.31084428171440881
aF0.31283652810682749
aF0.31482877449924618
aF0.31682102089166486
aF0.31881326728408355
aF0.32080551367650223
aF0.32279776006892091
aF0.3247900064613396
aF0.32678225285375839
aF0.32877449924617708
aF0.33076674563859576
aF0.33275899203101444
aF0.33475123842343313
aF0.33674348481585181
aF0.3387357312082705
aF0.34072797760068918
aF0.34272022399310786
aF0.34471247038552655
aF0.34670471677794534
aF0.34869696317036403
aF0.35068920956278271
aF0.3526814559552014
aF0.35467370234762008
aF0.35666594874003876
aF0.35865819513245745
aF0.36065044152487613
aF0.36264268791729481
aF0.3646349343097135
aF0.36662718070213229
aF0.36861942709455098
aF0.37061167348696966
aF0.37260391987938835
aF0.37459616627180703
aF0.37658841266422571
aF0.3785806590566444
aF0.38057290544906308
aF0.38256515184148177
aF0.38455739823390045
aF0.38654964462631924
aF0.38854189101873793
aF0.39053413741115661
aF0.3925263838035753
aF0.39451863019599398
aF0.39651087658841266
aF0.39850312298083135
aF0.40049536937325003
aF0.40248761576566872
aF0.4044798621580874
aF0.40647210855050608
aF0.40846435494292488
aF0.41045660133534356
aF0.41244884772776225
aF0.41444109412018093
aF0.41643334051259961
aF0.4184255869050183
aF0.42041783329743698
aF0.42241007968985567
aF0.42440232608227435
aF0.42639457247469303
aF0.42838681886711183
aF0.43037906525953051
aF0.4323713116519492
aF0.43436355804436788
aF0.43635580443678657
aF0.43834805082920525
aF0.44034029722162393
aF0.44233254361404262
aF0.4443247900064613
aF0.44631703639887998
aF0.44830928279129878
aF0.45030152918371746
aF0.45229377557613615
aF0.45428602196855483
aF0.45627826836097352
aF0.4582705147533922
aF0.46026276114581088
aF0.46225500753822957
aF0.46424725393064825
aF0.46623950032306694
aF0.46823174671548573
aF0.47022399310790441
aF0.4722162395003231
aF0.47420848589274178
aF0.47620073228516047
aF0.47819297867757915
aF0.48018522506999783
aF0.48217747146241652
aF0.4841697178548352
aF0.48616196424725389
aF0.48815421063967257
aF0.49014645703209136
aF0.49213870342451005
aF0.49413094981692873
aF0.49612319620934742
aF0.4981154426017661
aF0.50010768899418478
aF0.50209993538660347
aF0.50409218177902226
aF0.50608442817144095
aF0.50807667456385963
aF0.51006892095627832
aF0.512061167348697
aF0.51405341374111568
aF0.51604566013353437
aF0.51803790652595305
aF0.52003015291837174
aF0.52202239931079042
aF0.5240146457032091
aF0.52600689209562779
aF0.52799913848804647
aF0.52999138488046516
aF0.53198363127288384
aF0.53397587766530252
aF0.53596812405772132
aF0.53796037045014
aF0.53995261684255869
aF0.54194486323497737
aF0.54393710962739605
aF0.54592935601981485
aF0.54792160241223353
aF0.54991384880465222
aF0.5519060951970709
aF0.55389834158948958
aF0.55589058798190827
aF0.55788283437432695
aF0.55987508076674564
aF0.56186732715916432
aF0.563859573551583
aF0.56585181994400169
aF0.56784406633642037
aF0.56983631272883906
aF0.57182855912125774
aF0.57382080551367642
aF0.57581305190609522
aF0.5778052982985139
aF0.57979754469093259
aF0.58178979108335127
aF0.58378203747576995
aF0.58577428386818875
aF0.58776653026060743
aF0.58975877665302612
aF0.5917510230454448
aF0.59374326943786349
aF0.59573551583028217
aF0.59772776222270085
aF0.59972000861511954
aF0.60171225500753822
aF0.60370450139995691
aF0.60569674779237559
aF0.60768899418479427
aF0.60968124057721296
aF0.61167348696963164
aF0.61366573336205033
aF0.61565797975446912
aF0.6176502261468878
aF0.61964247253930649
aF0.62163471893172517
aF0.62362696532414386
aF0.62561921171656254
aF0.62761145810898133
aF0.62960370450140002
aF0.6315959508938187
aF0.63358819728623739
aF0.63558044367865607
aF0.63757269007107475
aF0.63956493646349344
aF0.64155718285591212
aF0.64354942924833081
aF0.64554167564074949
aF0.64753392203316817
aF0.64952616842558686
aF0.65151841481800554
aF0.65351066121042423
aF0.65550290760284291
aF0.65749515399526171
aF0.65948740038768039
aF0.66147964678009907
aF0.66347189317251776
aF0.66546413956493644
aF0.66745638595735524
aF0.66944863234977392
aF0.6714408787421926
aF0.67343312513461129
aF0.67542537152702997
aF0.67741761791944866
aF0.67940986431186734
aF0.68140211070428602
aF0.68339435709670471
aF0.68538660348912339
aF0.68737884988154208
aF0.68937109627396076
aF0.69136334266637944
aF0.69335558905879813
aF0.69534783545121681
aF0.69734008184363561
aF0.69933232823605429
aF0.70132457462847297
aF0.70331682102089166
aF0.70530906741331034
aF0.70730131380572914
aF0.70929356019814782
aF0.71128580659056651
aF0.71327805298298519
aF0.71527029937540387
aF0.71726254576782256
aF0.71925479216024124
aF0.72124703855265992
aF0.72323928494507861
aF0.72523153133749729
aF0.72722377772991598
aF0.72921602412233466
aF0.73120827051475334
aF0.73320051690717203
aF0.73519276329959071
aF0.7371850096920094
aF0.73917725608442819
aF0.74116950247684688
aF0.74316174886926556
aF0.74515399526168424
aF0.74714624165410293
aF0.74913848804652172
aF0.75113073443894041
aF0.75312298083135909
aF0.75511522722377777
aF0.75710747361619646
aF0.75909972000861514
aF0.76109196640103383
aF0.76308421279345251
aF0.76507645918587119
aF0.76706870557828988
aF0.76906095197070856
aF0.77105319836312725
aF0.77304544475554593
aF0.77503769114796461
aF0.77702993754038341
aF0.77902218393280209
aF0.78101443032522078
aF0.78300667671763946
aF0.78499892311005814
aF0.78699116950247683
aF0.78898341589489551
aF0.7909756622873142
aF0.79296790867973299
aF0.79496015507215168
aF0.79695240146457036
aF0.79894464785698904
aF0.80093689424940773
aF0.80292914064182641
aF0.80492138703424509
aF0.80691363342666378
aF0.80890587981908246
aF0.81089812621150115
aF0.81289037260391983
aF0.81488261899633851
aF0.81687486538875731
aF0.81886711178117599
aF0.82085935817359468
aF0.82285160456601336
aF0.82484385095843205
aF0.82683609735085073
aF0.82882834374326941
aF0.8308205901356881
aF0.83281283652810689
aF0.83480508292052558
aF0.83679732931294426
aF0.83878957570536294
aF0.84078182209778163
aF0.84277406849020031
aF0.844766314882619
aF0.84675856127503768
aF0.84875080766745636
aF0.85074305405987505
aF0.85273530045229373
aF0.85472754684471242
aF0.8567197932371311
aF0.85871203962954989
aF0.86070428602196858
aF0.86269653241438726
aF0.86468877880680595
aF0.86668102519922463
aF0.86867327159164331
aF0.870665517984062
aF0.87265776437648068
aF0.87465001076889948
aF0.87664225716131816
aF0.87863450355373685
aF0.88062674994615553
aF0.88261899633857421
aF0.8846112427309929
aF0.88660348912341158
aF0.88859573551583027
aF0.89058798190824895
aF0.89258022830066763
aF0.89457247469308632
aF0.896564721085505
aF0.8985569674779238
aF0.90054921387034248
aF0.90254146026276116
aF0.90453370665517985
aF0.90652595304759853
aF0.90851819944001722
aF0.9105104458324359
aF0.91250269222485458
aF0.91449493861727327
aF0.91648718500969206
aF0.91847943140211075
aF0.92047167779452943
aF0.92246392418694811
aF0.9244561705793668
aF0.92644841697178548
aF0.92844066336420417
aF0.93043290975662285
aF0.93242515614904153
aF0.93441740254146022
aF0.9364096489338789
aF0.9384018953262977
aF0.94039414171871638
aF0.94238638811113506
aF0.94437863450355375
aF0.94637088089597243
aF0.94836312728839112
aF0.9503553736808098
aF0.95234762007322848
aF0.95433986646564717
aF0.95633211285806596
aF0.95832435925048465
aF0.96031660564290333
aF0.96230885203532202
aF0.9643010984277407
aF0.96629334482015938
aF0.96828559121257807
aF0.97027783760499675
aF0.97227008399741544
aF0.97426233038983412
aF0.9762545767822528
aF0.9782468231746716
aF0.98023906956709028
aF0.98223131595950897
aF0.98422356235192765
aF0.98621580874434633
aF0.98820805513676502
aF0.9902003015291837
aF0.99219254792160239
aF0.99418479431402107
aF0.99617704070643975
aF0.99816928709885855
asS'refSize'
p9
I502
sS'OriginVar'
p10
S'noname'
p11
sS'upValue'
p12
F0.99816928709885855
sb.