cnumpy.core.multiarray
_reconstruct
p0
(cnumpy
ndarray
p1
(I0
tp2
S'b'
p3
tp4
Rp5
(I1
(I9
I2
tp6
cnumpy
dtype
p7
(S'S6'
p8
I0
I1
tp9
Rp10
(I3
S'|'
p11
NNNI6
I1
I0
tp12
bI00
S'87665\x0091992\x0091993\x0092735\x0092821\x0093224\x0093225\x0097884\x0097885\x0098198\x0098199\x00101905101906102378102379103361103362103686'
p13
tp14
b.