cnumpy.core.multiarray
_reconstruct
p0
(cnumpy
ndarray
p1
(I0
tp2
S'b'
p3
tp4
Rp5
(I1
(I7
I2
tp6
cnumpy
dtype
p7
(S'S6'
p8
I0
I1
tp9
Rp10
(I3
S'|'
p11
NNNI6
I1
I0
tp12
bI00
S'89333\x0093516\x0093516\x0094234\x0094261\x0096641\x0096642\x00100243100244102505102506102893102894104263'
p13
tp14
b.