cnumpy.core.multiarray
_reconstruct
p0
(cnumpy
ndarray
p1
(I0
tp2
S'b'
p3
tp4
Rp5
(I1
(I34
I2
tp6
cnumpy
dtype
p7
(S'S6'
p8
I0
I1
tp9
Rp10
(I3
S'|'
p11
NNNI6
I1
I0
tp12
bI00
S'111761112545112546113127113128114757114758115206115207115370115371117201117202117264117265117557117558117755117756118180118181123917123918124090124091124194124195124369124370124503124504124652124653125012125013126846126900126976126989127074127075127311127312128099128100130439130440130552130553130668130669130747130748131977131978132272132273132382132383132559132560133101133104133389133390133521133522133587'
p13
tp14
b.