cnumpy.core.multiarray
_reconstruct
p0
(cnumpy
ndarray
p1
(I0
tp2
S'b'
p3
tp4
Rp5
(I1
(I32
I2
tp6
cnumpy
dtype
p7
(S'S6'
p8
I0
I1
tp9
Rp10
(I3
S'|'
p11
NNNI6
I1
I0
tp12
bI00
S'114205115863115864116034116035116182116183116683116684117019117020118479118480118636118637118721118722118780118781120195120196120792120794122074122185123534123535123724123725123798123799125793125815125970125971126158126159126337126338126514126515126671126672128482128483129642129643129841129842129894129895129973129974131093131094131220131221131382131383131729131731131885131886133785'
p13
tp14
b.