(iSomeUtils.GLBasic
UniFunc
p1
(dp2
S'yaxis'
p3
(lp4
F2.7974688501843531e-06
aF0.0020067942725822481
aF0.0040107910763143113
aF0.0060147878800463749
aF0.0080187846837784394
aF0.010022781487510504
aF0.012026778291242567
aF0.014030775094974629
aF0.016034771898706692
aF0.018038768702438757
aF0.020042765506170821
aF0.022046762309902882
aF0.024050759113634947
aF0.026054755917367011
aF0.028058752721099072
aF0.030062749524831137
aF0.032066746328563205
aF0.034070743132295266
aF0.036074739936027334
aF0.038078736739759395
aF0.040082733543491463
aF0.042086730347223524
aF0.044090727150955585
aF0.046094723954687652
aF0.048098720758419714
aF0.050102717562151775
aF0.052106714365883842
aF0.054110711169615903
aF0.056114707973347965
aF0.058118704777080032
aF0.060122701580812093
aF0.062126698384544161
aF0.064130695188276216
aF0.066134691992008277
aF0.068138688795740338
aF0.070142685599472412
aF0.072146682403204473
aF0.074150679206936534
aF0.076154676010668595
aF0.078158672814400657
aF0.080162669618132731
aF0.082166666421864792
aF0.084170663225596853
aF0.086174660029328914
aF0.088178656833060975
aF0.090182653636793036
aF0.092186650440525111
aF0.094190647244257172
aF0.096194644047989233
aF0.098198640851721294
aF0.10020263765545336
aF0.10220663445918543
aF0.10421063126291749
aF0.10621462806664955
aF0.10821862487038161
aF0.11022262167411367
aF0.11222661847784574
aF0.11423061528157781
aF0.11623461208530987
aF0.11823860888904193
aF0.12024260569277399
aF0.12224660249650605
aF0.12425059930023813
aF0.12625459610397019
aF0.12825859290770225
aF0.13026258971143431
aF0.13226658651516637
aF0.13427058331889843
aF0.1362745801226305
aF0.13827857692636256
aF0.14028257373009465
aF0.14228657053382671
aF0.14429056733755877
aF0.14629456414129083
aF0.14829856094502289
aF0.15030255774875495
aF0.15230655455248701
aF0.15431055135621907
aF0.15631454815995113
aF0.15831854496368319
aF0.16032254176741528
aF0.16232653857114734
aF0.16433053537487941
aF0.16633453217861147
aF0.16833852898234353
aF0.17034252578607559
aF0.17234652258980765
aF0.17435051939353971
aF0.17635451619727177
aF0.17835851300100383
aF0.18036250980473589
aF0.18236650660846798
aF0.18437050341220004
aF0.1863745002159321
aF0.18837849701966417
aF0.19038249382339623
aF0.19238649062712829
aF0.19439048743086035
aF0.19639448423459241
aF0.19839848103832447
aF0.20040247784205653
aF0.20240647464578859
aF0.20441047144952068
aF0.20641446825325274
aF0.2084184650569848
aF0.21042246186071686
aF0.21242645866444892
aF0.21443045546818099
aF0.21643445227191305
aF0.21843844907564511
aF0.22044244587937717
aF0.22244644268310923
aF0.22445043948684129
aF0.22645443629057338
aF0.22845843309430544
aF0.2304624298980375
aF0.23246642670176956
aF0.23447042350550162
aF0.23647442030923368
aF0.23847841711296575
aF0.24048241391669781
aF0.24248641072042987
aF0.24449040752416193
aF0.24649440432789402
aF0.24849840113162608
aF0.25050239793535811
aF0.2525063947390902
aF0.25451039154282223
aF0.25651438834655432
aF0.25851838515028641
aF0.26052238195401844
aF0.26252637875775053
aF0.26453037556148257
aF0.26653437236521466
aF0.26853836916894669
aF0.27054236597267878
aF0.27254636277641081
aF0.2745503595801429
aF0.27655435638387493
aF0.27855835318760702
aF0.28056234999133911
aF0.28256634679507114
aF0.28457034359880323
aF0.28657434040253527
aF0.28857833720626735
aF0.29058233400999939
aF0.29258633081373148
aF0.29459032761746351
aF0.2965943244211956
aF0.29859832122492763
aF0.30060231802865972
aF0.30260631483239181
aF0.30461031163612384
aF0.30661430843985593
aF0.30861830524358796
aF0.31062230204732005
aF0.31262629885105209
aF0.31463029565478418
aF0.31663429245851621
aF0.3186382892622483
aF0.32064228606598039
aF0.32264628286971242
aF0.32465027967344451
aF0.32665427647717654
aF0.32865827328090863
aF0.33066227008464066
aF0.33266626688837275
aF0.33467026369210479
aF0.33667426049583687
aF0.33867825729956891
aF0.340682254103301
aF0.34268625090703309
aF0.34469024771076512
aF0.34669424451449721
aF0.34869824131822924
aF0.35070223812196133
aF0.35270623492569336
aF0.35471023172942545
aF0.35671422853315748
aF0.35871822533688957
aF0.36072222214062161
aF0.3627262189443537
aF0.36473021574808578
aF0.36673421255181782
aF0.36873820935554991
aF0.37074220615928194
aF0.37274620296301403
aF0.37475019976674606
aF0.37675419657047815
aF0.37875819337421018
aF0.38076219017794227
aF0.38276618698167431
aF0.38477018378540639
aF0.38677418058913848
aF0.38877817739287052
aF0.39078217419660261
aF0.39278617100033464
aF0.39479016780406673
aF0.39679416460779876
aF0.39879816141153085
aF0.40080215821526288
aF0.40280615501899497
aF0.404810151822727
aF0.40681414862645909
aF0.40881814543019118
aF0.41082214223392322
aF0.4128261390376553
aF0.41483013584138734
aF0.41683413264511943
aF0.41883812944885146
aF0.42084212625258355
aF0.42284612305631558
aF0.42485011986004767
aF0.4268541166637797
aF0.42885811346751179
aF0.43086211027124388
aF0.43286610707497591
aF0.434870103878708
aF0.43687410068244004
aF0.43887809748617213
aF0.44088209428990416
aF0.44288609109363625
aF0.44489008789736828
aF0.44689408470110037
aF0.4488980815048324
aF0.45090207830856449
aF0.45290607511229658
aF0.45491007191602861
aF0.4569140687197607
aF0.45891806552349274
aF0.46092206232722482
aF0.46292605913095686
aF0.46493005593468895
aF0.46693405273842098
aF0.46893804954215307
aF0.47094204634588516
aF0.47294604314961719
aF0.47495003995334928
aF0.47695403675708131
aF0.4789580335608134
aF0.48096203036454543
aF0.48296602716827752
aF0.48497002397200956
aF0.48697402077574165
aF0.48897801757947368
aF0.49098201438320577
aF0.49298601118693786
aF0.49499000799066989
aF0.49699400479440198
aF0.49899800159813401
aF0.5010019984018661
aF0.50300599520559819
aF0.50500999200933028
aF0.50701398881306237
aF0.50901798561679434
aF0.51102198242052643
aF0.51302597922425852
aF0.51502997602799061
aF0.5170339728317227
aF0.51903796963545468
aF0.52104196643918677
aF0.52304596324291885
aF0.52504996004665094
aF0.52705395685038292
aF0.52905795365411501
aF0.5310619504578471
aF0.53306594726157919
aF0.53506994406531128
aF0.53707394086904325
aF0.53907793767277534
aF0.54108193447650743
aF0.54308593128023952
aF0.5450899280839715
aF0.54709392488770359
aF0.54909792169143568
aF0.55110191849516776
aF0.55310591529889974
aF0.55510991210263183
aF0.55711390890636392
aF0.55911790571009601
aF0.5611219025138281
aF0.56312589931756007
aF0.56512989612129216
aF0.56713389292502425
aF0.56913788972875634
aF0.57114188653248832
aF0.57314588333622041
aF0.5751498801399525
aF0.57715387694368459
aF0.57915787374741667
aF0.58116187055114865
aF0.58316586735488074
aF0.58516986415861283
aF0.58717386096234492
aF0.5891778577660769
aF0.59118185456980898
aF0.59318585137354107
aF0.59518984817727316
aF0.59719384498100514
aF0.59919784178473723
aF0.60120183858846932
aF0.60320583539220141
aF0.60520983219593349
aF0.60721382899966547
aF0.60921782580339756
aF0.61122182260712965
aF0.61322581941086174
aF0.61522981621459372
aF0.61723381301832581
aF0.61923780982205789
aF0.62124180662578998
aF0.62324580342952207
aF0.62524980023325405
aF0.62725379703698614
aF0.62925779384071823
aF0.63126179064445032
aF0.63326578744818229
aF0.63526978425191438
aF0.63727378105564647
aF0.63927777785937856
aF0.64128177466311065
aF0.64328577146684263
aF0.64528976827057472
aF0.6472937650743068
aF0.64929776187803889
aF0.65130175868177087
aF0.65330575548550296
aF0.65530975228923505
aF0.65731374909296714
aF0.65931774589669911
aF0.6613217427004312
aF0.66332573950416329
aF0.66532973630789538
aF0.66733373311162747
aF0.66933772991535945
aF0.67134172671909154
aF0.67334572352282362
aF0.67534972032655571
aF0.67735371713028769
aF0.67935771393401978
aF0.68136171073775187
aF0.68336570754148396
aF0.68536970434521605
aF0.68737370114894802
aF0.68937769795268011
aF0.6913816947564122
aF0.69338569156014429
aF0.69538968836387627
aF0.69739368516760836
aF0.69939768197134045
aF0.70140167877507253
aF0.70340567557880451
aF0.7054096723825366
aF0.70741366918626869
aF0.70941766599000078
aF0.71142166279373287
aF0.71342565959746485
aF0.71542965640119693
aF0.71743365320492902
aF0.71943765000866111
aF0.72144164681239309
aF0.72344564361612518
aF0.72544964041985727
aF0.72745363722358936
aF0.72945763402732144
aF0.73146163083105342
aF0.73346562763478551
aF0.7354696244385176
aF0.73747362124224969
aF0.73947761804598167
aF0.74148161484971375
aF0.74348561165344584
aF0.74548960845717793
aF0.74749360526090991
aF0.749497602064642
aF0.75150159886837409
aF0.75350559567210618
aF0.75550959247583827
aF0.75751358927957024
aF0.75951758608330233
aF0.76152158288703442
aF0.76352557969076651
aF0.76552957649449849
aF0.76753357329823058
aF0.76953757010196266
aF0.77154156690569475
aF0.77354556370942684
aF0.77554956051315882
aF0.77755355731689091
aF0.779557554120623
aF0.78156155092435509
aF0.78356554772808706
aF0.78556954453181915
aF0.78757354133555124
aF0.78957753813928333
aF0.79158153494301542
aF0.7935855317467474
aF0.79558952855047949
aF0.79759352535421157
aF0.79959752215794366
aF0.80160151896167564
aF0.80360551576540773
aF0.80560951256913982
aF0.80761350937287191
aF0.80961750617660388
aF0.81162150298033597
aF0.81362549978406806
aF0.81562949658780015
aF0.81763349339153224
aF0.81963749019526422
aF0.82164148699899631
aF0.8236454838027284
aF0.82564948060646048
aF0.82765347741019246
aF0.82965747421392455
aF0.83166147101765664
aF0.83366546782138873
aF0.83566946462512082
aF0.83767346142885279
aF0.83967745823258488
aF0.84168145503631697
aF0.84368545184004906
aF0.84568944864378104
aF0.84769344544751313
aF0.84969744225124522
aF0.85170143905497731
aF0.85370543585870928
aF0.85570943266244137
aF0.85771342946617346
aF0.85971742626990555
aF0.86172142307363764
aF0.86372541987736962
aF0.8657294166811017
aF0.86773341348483379
aF0.86973741028856588
aF0.87174140709229786
aF0.87374540389602995
aF0.87574940069976204
aF0.87775339750349413
aF0.87975739430722621
aF0.88176139111095819
aF0.88376538791469028
aF0.88576938471842237
aF0.88777338152215446
aF0.88977737832588644
aF0.89178137512961853
aF0.89378537193335061
aF0.8957893687370827
aF0.89779336554081468
aF0.89979736234454677
aF0.90180135914827886
aF0.90380535595201095
aF0.90580935275574304
aF0.90781334955947501
aF0.9098173463632071
aF0.91182134316693919
aF0.91382533997067128
aF0.91582933677440326
aF0.91783333357813535
aF0.91983733038186744
aF0.92184132718559952
aF0.92384532398933161
aF0.92584932079306359
aF0.92785331759679568
aF0.92985731440052777
aF0.93186131120425986
aF0.93386530800799183
aF0.93586930481172392
aF0.93787330161545601
aF0.9398772984191881
aF0.94188129522292019
aF0.94388529202665217
aF0.94588928883038426
aF0.94789328563411634
aF0.94989728243784843
aF0.95190127924158041
aF0.9539052760453125
aF0.95590927284904459
aF0.95791326965277668
aF0.95991726645650866
aF0.96192126326024074
aF0.96392526006397283
aF0.96592925686770492
aF0.96793325367143701
aF0.96993725047516899
aF0.97194124727890108
aF0.97394524408263317
aF0.97594924088636525
aF0.97795323769009723
aF0.97995723449382932
aF0.98196123129756141
aF0.9839652281012935
aF0.98596922490502559
aF0.98797322170875757
aF0.98997721851248965
aF0.99198121531622174
aF0.99398521211995383
aF0.99598920892368581
aF0.9979932057274179
aF0.99999720253114999
asS'xaxis'
p5
(lp6
F-0.99767569588904415
aF-0.91170523323472163
aF-0.82992338709298319
aF-0.74531861428679047
aF-0.66348103780016898
aF-0.59081617664305586
aF-0.52544862807271508
aF-0.45882998116265428
aF-0.40142326086617908
aF-0.34147283654667393
aF-0.28696726129504857
aF-0.2349645908563357
aF-0.18886870746210893
aF-0.14444279291906248
aF-0.095640505665246733
aF-0.050458373154000813
aF-0.01178062248897771
aF0.026065659906449712
aF0.065868205324165041
aF0.10063484108058729
aF0.13207617933738081
aF0.16155063755202304
aF0.19233934474950698
aF0.21994302350055861
aF0.24619390960654974
aF0.27063959866345999
aF0.29509439326529407
aF0.31856963131554417
aF0.33982168311406324
aF0.36168371312635328
aF0.37990987170679835
aF0.40006428143907979
aF0.41831051086625259
aF0.43723710995591358
aF0.45397631133542249
aF0.46903539972526587
aF0.48378020267427879
aF0.4987749997947295
aF0.51222861641693118
aF0.52650071940354959
aF0.54089021701927531
aF0.55420955395248228
aF0.56546508106401383
aF0.57814786860362832
aF0.58986580920136467
aF0.60089482597164823
aF0.61085992332542016
aF0.62144350461670861
aF0.6312407118826231
aF0.64078229808978038
aF0.65124508328533448
aF0.66052985729601543
aF0.6691699946339853
aF0.67732922443133137
aF0.68532817740119145
aF0.69247232407693482
aF0.70009392599474563
aF0.70626444422508006
aF0.7135695954246557
aF0.72043370137084617
aF0.72751862749520968
aF0.73363226140170301
aF0.73955113571251441
aF0.74542961435701671
aF0.75082578597479066
aF0.75627699915256996
aF0.76196501134905481
aF0.76692981154039597
aF0.77171329397042765
aF0.77711255281541258
aF0.78155602985369432
aF0.78596343880877506
aF0.79033829453551796
aF0.79462452353318547
aF0.7989501243732815
aF0.80350444941800947
aF0.80812512194189456
aF0.81230079050597026
aF0.81621240485674051
aF0.81995767191177538
aF0.82354567249535071
aF0.82697816341819608
aF0.83047605137997249
aF0.83371548508455162
aF0.83692337574530229
aF0.84006225629716846
aF0.84306335232968999
aF0.84600546869777649
aF0.84880114125739881
aF0.85191040195037693
aF0.85465161731724137
aF0.85745900448400625
aF0.86031567007731269
aF0.86273821233126546
aF0.8654494160879056
aF0.86787551491373094
aF0.87031340814627045
aF0.87286446994514977
aF0.87510279125230328
aF0.87732250400502276
aF0.87953168549645055
aF0.88152431409227794
aF0.88350640688492699
aF0.88548067240982409
aF0.88739761357907998
aF0.88926191209079275
aF0.89132224817687433
aF0.89320559885684525
aF0.8950965115514502
aF0.89673397292446277
aF0.89842121216375204
aF0.89995607551870749
aF0.90161237172675257
aF0.90309654750728185
aF0.90460326951131997
aF0.90613279524398505
aF0.90773836403222008
aF0.90927920138444129
aF0.91068722854504447
aF0.91204260226867562
aF0.91353712095624395
aF0.91494809564246671
aF0.91630680665561726
aF0.9176501797696206
aF0.91891720937554489
aF0.92016874257636516
aF0.9214394884384367
aF0.92270336041878731
aF0.92387141939117878
aF0.92513860836505057
aF0.92634903255772394
aF0.92749208369744318
aF0.92860756965882185
aF0.92968863590333517
aF0.93077202784614155
aF0.93180949041595063
aF0.93286203027004944
aF0.93400183200325859
aF0.93492820381047315
aF0.93587235975426775
aF0.93684876961729202
aF0.93774225679947354
aF0.93859905537369648
aF0.93946418039627999
aF0.94037412596424352
aF0.94118949075388336
aF0.94215046048811568
aF0.94300690212688387
aF0.94385550761209358
aF0.94464837013798908
aF0.94551843564613458
aF0.94632954476948239
aF0.94714868277739517
aF0.94784961020320924
aF0.94850625985552028
aF0.94922783861111348
aF0.94998577149996488
aF0.95063684858223785
aF0.95128363759372148
aF0.95192923195305656
aF0.95260983116101383
aF0.95322367581068557
aF0.95382208225862097
aF0.95438939742987072
aF0.95499369691259428
aF0.95556894258709946
aF0.9562025803048726
aF0.95680090356684278
aF0.95733463703369437
aF0.95786879012107096
aF0.95842843213001827
aF0.95893929220249419
aF0.95950209874313286
aF0.96005898008918789
aF0.96057706484978156
aF0.96111374640152536
aF0.96161042825361487
aF0.96208483266067257
aF0.96257479641950439
aF0.96304980145542141
aF0.96357531982233846
aF0.96407073980357771
aF0.96452057234331456
aF0.96498951115373233
aF0.96540197398733563
aF0.96580759127949634
aF0.96622813119393092
aF0.96666042632568017
aF0.96706899938193369
aF0.96747731549270899
aF0.96788471163863266
aF0.96828089602461986
aF0.968672667364888
aF0.96906412626194016
aF0.96943407474253007
aF0.96979223158307959
aF0.97014655278019668
aF0.97051655240531187
aF0.97087945653234553
aF0.97125740723232323
aF0.9715819141303057
aF0.97198107006529244
aF0.97233625477433172
aF0.97268336038420533
aF0.97298679047809333
aF0.97329814774784817
aF0.97364774796708642
aF0.97394415304629267
aF0.97423293718705906
aF0.97453434433350017
aF0.97482912430168822
aF0.97512256698955246
aF0.97541939778157327
aF0.97571236008629336
aF0.97599046852360649
aF0.97625534491791677
aF0.97652262930811373
aF0.97678016395549805
aF0.97702704230102455
aF0.97728741387064577
aF0.9775429578125816
aF0.97781004075259648
aF0.97809459710900692
aF0.97833412888487836
aF0.97855496918931495
aF0.97879903567350013
aF0.97904212871762941
aF0.97927057482877156
aF0.97951887953844552
aF0.97975433802856959
aF0.97998647124104532
aF0.98022258191374512
aF0.98045958323148441
aF0.98069898564278279
aF0.98089539358504529
aF0.98112245756317207
aF0.98133441149069589
aF0.98154166215291716
aF0.9817456041479462
aF0.98194115699773343
aF0.9821372168197402
aF0.98233238305272863
aF0.9825402576331137
aF0.98273458337741304
aF0.98291609096692945
aF0.98309477650754351
aF0.98328705224257051
aF0.98346439936759866
aF0.9836519084992259
aF0.98384420132217043
aF0.9840352269231718
aF0.98421030230067852
aF0.98438942934308415
aF0.98454616505498649
aF0.98473124273626822
aF0.98490321031361061
aF0.9850705780379978
aF0.98524298817197131
aF0.98540933417164633
aF0.98557234499229329
aF0.98574505191050421
aF0.98590480220441723
aF0.98606042156375873
aF0.98622017727515621
aF0.98636752388071391
aF0.98650419567191183
aF0.98664639201660975
aF0.98680039902782624
aF0.98694828143338276
aF0.98709126453019747
aF0.9872224851671485
aF0.98736865526205841
aF0.98751081752321546
aF0.98764597386865072
aF0.98777421796574849
aF0.9878952380817283
aF0.98802318618918417
aF0.9881502542903291
aF0.98828111872186053
aF0.988403190701997
aF0.98852733705190898
aF0.98866016489858377
aF0.98878307802893506
aF0.98890457900947504
aF0.9890190275680526
aF0.98913672473502556
aF0.98925470347592936
aF0.98937775305478648
aF0.98950655674906085
aF0.98960776670480999
aF0.98971321694663938
aF0.98981725095183593
aF0.98992846664105594
aF0.99003841236388657
aF0.99015488210067182
aF0.99026733160134173
aF0.9903664351703052
aF0.99047420821304644
aF0.99056721090701538
aF0.99066354528948897
aF0.9907713664969251
aF0.99087579456430563
aF0.99098033688005693
aF0.9910805581830886
aF0.99117042351891338
aF0.9912634540593761
aF0.99136181249029853
aF0.99146034843085951
aF0.991554205834974
aF0.99164948612768011
aF0.99174419056567986
aF0.99183731271935183
aF0.99192980026267419
aF0.99202740189966887
aF0.9921095044296242
aF0.99219516129025509
aF0.99227544999600181
aF0.99235840331759362
aF0.99244831465071748
aF0.99253491809084626
aF0.99262228226857774
aF0.99271114846580955
aF0.99279343372954076
aF0.992871795777021
aF0.99294311034567118
aF0.99301439995695406
aF0.99309249659668541
aF0.99316456265377506
aF0.99323366939218993
aF0.99330764210378075
aF0.99337755927458371
aF0.99344935846286697
aF0.99352614386448446
aF0.99359727235773354
aF0.99367046897577915
aF0.99374832270503699
aF0.99381544956278289
aF0.99388833676707899
aF0.99395436552714456
aF0.99402854223725057
aF0.99409388820820288
aF0.99415637631909926
aF0.99422165140757901
aF0.99428315476148943
aF0.99434599941566981
aF0.99440604856309145
aF0.99447503652241065
aF0.99454142862469319
aF0.99459849554693913
aF0.99465377827921309
aF0.99471479562363463
aF0.99477408805200751
aF0.99482650160818809
aF0.99489170855914733
aF0.9949470425216147
aF0.99500564830447003
aF0.99505417073007352
aF0.99510953397712187
aF0.99516126147822415
aF0.99520904767683294
aF0.99526672869883748
aF0.99531663738842058
aF0.99537313818017426
aF0.99542575339958117
aF0.99547342403572459
aF0.99552482387014862
aF0.9955780740747826
aF0.99562583687016404
aF0.99567571121355192
aF0.99572270879649039
aF0.99577148630327761
aF0.99581576975229713
aF0.99586078225825925
aF0.99590521983226221
aF0.99594682500966747
aF0.99598809590546988
aF0.99603649059961796
aF0.99608202330409101
aF0.99612454929560501
aF0.99616686425654821
aF0.99620793427336762
aF0.99625073937530928
aF0.99629524457161645
aF0.99633875537282957
aF0.99638014530409769
aF0.99641982436207077
aF0.99646287300277026
aF0.9965044865087429
aF0.99654295554877614
aF0.99658279490339829
aF0.996624397947111
aF0.99666361122474667
aF0.99669850501334589
aF0.99673632852500704
aF0.99677439197666762
aF0.99681247916981941
aF0.99684930086796042
aF0.99688574251174278
aF0.99692313557004186
aF0.99695813648952814
aF0.99699512282609137
aF0.99702722341212913
aF0.99706119990482533
aF0.99709414431868626
aF0.99712985048635505
aF0.99716510247276702
aF0.99719861426512235
aF0.99723386097473088
aF0.99726894712592284
aF0.99730325208480552
aF0.99733986572255762
aF0.99737203240364503
aF0.99740189413053759
aF0.99743284589017689
aF0.99746634440693471
aF0.9974968692565338
aF0.99752841627608246
aF0.9975596514172258
aF0.99759047743460205
aF0.99762421828553083
aF0.99765323012318818
aF0.99768302674362963
aF0.997715155364439
aF0.9977442330954811
aF0.99777270730166845
aF0.99779963702433783
aF0.99782999906740666
aF0.99785817007576449
aF0.99788527720645526
aF0.99791364768656776
aF0.99793885455177489
aF0.99796849733219251
aF0.99799628487631598
aF0.99802608206323895
aF0.99805181911196095
aF0.99808132081741752
aF0.998108413721706
aF0.99813496984682981
aF0.99815867417825288
aF0.99818541920954695
aF0.99821030042384074
aF0.99823628280090571
aF0.99826499508843103
aF0.99829112677363741
aF0.99831486947046799
aF0.99833837364091904
aF0.99836482868322829
aF0.99839219610323227
aF0.9984163222641782
aF0.99844403866640419
aF0.99846680016865785
aF0.99849308814567661
aF0.99851719121533122
aF0.9985414367825225
aF0.99856440644551947
aF0.99858805672849904
aF0.99861061585537425
aF0.9986324419863839
aF0.99865437286841918
aF0.99867852528082057
aF0.99870195619651847
aF0.99872394439929013
aF0.99874613018064085
aF0.99876744277554597
aF0.99879064614190538
aF0.99881350180609907
aF0.9988351469482537
aF0.99885783974499076
aF0.99887868959169812
aF0.99890130935623445
aF0.99892092637005536
aF0.99894181522619196
aF0.99896113743930948
aF0.9989845256058687
aF0.99900408451412903
aF0.99902695223450455
aF0.99905047937672364
aF0.99907255946020879
aF0.99909368761727646
aF0.99911622179358095
aF0.9991386147038317
aF0.99916042470329147
aF0.99918340243414949
aF0.99920744018284879
aF0.99923276573569564
aF0.99925824470952507
aF0.99928167249227751
aF0.99930447443449677
aF0.99933074019146706
aF0.9993552981337257
aF0.99938138234386376
aF0.99940739821018765
aF0.99943237871573842
aF0.99946287756818952
aF0.99949321942863412
aF0.99952277406417078
aF0.99955348579756342
aF0.99959173615780528
aF0.99963182170721177
aF0.99972640444997896
asS'size'
p7
I500
sb.