(iSomeUtils.GLBasic
UniFunc
p1
(dp2
S'yaxis'
p3
(lp4
F7.9516539440203568e-05
aF0.002083205851907377
aF0.0040868951643745505
aF0.0060905844768417245
aF0.0080942737893088985
aF0.010097963101776072
aF0.012101652414243247
aF0.01410534172671042
aF0.016109031039177591
aF0.018112720351644764
aF0.020116409664111937
aF0.02212009897657911
aF0.024123788289046287
aF0.02612747760151346
aF0.028131166913980633
aF0.030134856226447806
aF0.03213854553891498
aF0.034142234851382153
aF0.036145924163849326
aF0.038149613476316499
aF0.040153302788783672
aF0.042156992101250845
aF0.044160681413718018
aF0.046164370726185192
aF0.048168060038652372
aF0.050171749351119545
aF0.052175438663586718
aF0.054179127976053891
aF0.056182817288521064
aF0.058186506600988237
aF0.06019019591345541
aF0.062193885225922584
aF0.064197574538389757
aF0.066201263850856937
aF0.068204953163324103
aF0.070208642475791283
aF0.072212331788258449
aF0.074216021100725629
aF0.076219710413192795
aF0.078223399725659976
aF0.080227089038127142
aF0.082230778350594322
aF0.084234467663061488
aF0.086238156975528668
aF0.088241846287995834
aF0.090245535600463014
aF0.092249224912930181
aF0.094252914225397361
aF0.096256603537864541
aF0.098260292850331707
aF0.10026398216279889
aF0.10226767147526605
aF0.10427136078773323
aF0.1062750501002004
aF0.10827873941266758
aF0.11028242872513475
aF0.11228611803760193
aF0.11428980735006909
aF0.11629349666253627
aF0.11829718597500344
aF0.12030087528747062
aF0.12230456459993778
aF0.12430825391240496
aF0.12631194322487216
aF0.12831563253733932
aF0.13031932184980649
aF0.13232301116227368
aF0.13432670047474085
aF0.13633038978720802
aF0.13833407909967518
aF0.14033776841214238
aF0.14234145772460954
aF0.14434514703707671
aF0.14634883634954388
aF0.14835252566201107
aF0.15035621497447824
aF0.1523599042869454
aF0.15436359359941257
aF0.15636728291187976
aF0.15837097222434693
aF0.16037466153681409
aF0.16237835084928129
aF0.16438204016174846
aF0.16638572947421562
aF0.16838941878668279
aF0.17039310809914998
aF0.17239679741161715
aF0.17440048672408431
aF0.17640417603655148
aF0.17840786534901867
aF0.18041155466148584
aF0.18241524397395301
aF0.18441893328642017
aF0.18642262259888737
aF0.18842631191135453
aF0.1904300012238217
aF0.19243369053628889
aF0.19443737984875606
aF0.19644106916122323
aF0.19844475847369039
aF0.20044844778615759
aF0.20245213709862475
aF0.20445582641109192
aF0.20645951572355908
aF0.20846320503602628
aF0.21046689434849344
aF0.21247058366096061
aF0.21447427297342778
aF0.21647796228589497
aF0.21848165159836214
aF0.2204853409108293
aF0.22248903022329647
aF0.22449271953576366
aF0.22649640884823083
aF0.228500098160698
aF0.23050378747316519
aF0.23250747678563236
aF0.23451116609809952
aF0.23651485541056669
aF0.23851854472303388
aF0.24052223403550105
aF0.24252592334796821
aF0.24452961266043538
aF0.24653330197290257
aF0.24853699128536974
aF0.25054068059783691
aF0.2525443699103041
aF0.25454805922277124
aF0.25655174853523843
aF0.25855543784770563
aF0.26055912716017277
aF0.26256281647263996
aF0.26456650578510715
aF0.26657019509757429
aF0.26857388441004149
aF0.27057757372250862
aF0.27258126303497582
aF0.27458495234744301
aF0.27658864165991015
aF0.27859233097237734
aF0.28059602028484454
aF0.28259970959731168
aF0.28460339890977887
aF0.28660708822224601
aF0.2886107775347132
aF0.2906144668471804
aF0.29261815615964754
aF0.29462184547211473
aF0.29662553478458192
aF0.29862922409704906
aF0.30063291340951626
aF0.30263660272198345
aF0.30464029203445059
aF0.30664398134691778
aF0.30864767065938492
aF0.31065135997185211
aF0.31265504928431931
aF0.31465873859678645
aF0.31666242790925364
aF0.31866611722172083
aF0.32066980653418797
aF0.32267349584665517
aF0.32467718515912236
aF0.3266808744715895
aF0.32868456378405669
aF0.33068825309652383
aF0.33269194240899103
aF0.33469563172145822
aF0.33669932103392536
aF0.33870301034639255
aF0.34070669965885975
aF0.34271038897132688
aF0.34471407828379408
aF0.34671776759626122
aF0.34872145690872841
aF0.35072514622119561
aF0.35272883553366274
aF0.35473252484612994
aF0.35673621415859713
aF0.35873990347106427
aF0.36074359278353146
aF0.36274728209599866
aF0.3647509714084658
aF0.36675466072093299
aF0.36875835003340013
aF0.37076203934586732
aF0.37276572865833452
aF0.37476941797080165
aF0.37677310728326885
aF0.37877679659573604
aF0.38078048590820318
aF0.38278417522067038
aF0.38478786453313757
aF0.38679155384560471
aF0.3887952431580719
aF0.39079893247053904
aF0.39280262178300623
aF0.39480631109547343
aF0.39681000040794057
aF0.39881368972040776
aF0.40081737903287495
aF0.40282106834534209
aF0.40482475765780929
aF0.40682844697027642
aF0.40883213628274362
aF0.41083582559521081
aF0.41283951490767795
aF0.41484320422014515
aF0.41684689353261234
aF0.41885058284507948
aF0.42085427215754667
aF0.42285796147001387
aF0.424861650782481
aF0.4268653400949482
aF0.42886902940741534
aF0.43087271871988253
aF0.43287640803234972
aF0.43488009734481686
aF0.43688378665728406
aF0.43888747596975125
aF0.44089116528221839
aF0.44289485459468558
aF0.44489854390715272
aF0.44690223321961992
aF0.44890592253208711
aF0.45090961184455425
aF0.45291330115702144
aF0.45491699046948864
aF0.45692067978195577
aF0.45892436909442297
aF0.46092805840689016
aF0.4629317477193573
aF0.46493543703182449
aF0.46693912634429163
aF0.46894281565675883
aF0.47094650496922602
aF0.47295019428169316
aF0.47495388359416035
aF0.47695757290662755
aF0.47896126221909469
aF0.48096495153156188
aF0.48296864084402907
aF0.48497233015649621
aF0.48697601946896341
aF0.48897970878143054
aF0.49098339809389774
aF0.49298708740636493
aF0.49499077671883207
aF0.49699446603129926
aF0.49899815534376646
aF0.50100184465623354
aF0.50300553396870074
aF0.50500922328116793
aF0.50701291259363512
aF0.50901660190610221
aF0.5110202912185694
aF0.51302398053103659
aF0.51502766984350379
aF0.51703135915597098
aF0.51903504846843806
aF0.52103873778090526
aF0.52304242709337245
aF0.52504611640583965
aF0.52704980571830684
aF0.52905349503077403
aF0.53105718434324112
aF0.53306087365570831
aF0.53506456296817551
aF0.5370682522806427
aF0.53907194159310989
aF0.54107563090557698
aF0.54307932021804417
aF0.54508300953051136
aF0.54708669884297856
aF0.54909038815544575
aF0.55109407746791295
aF0.55309776678038003
aF0.55510145609284722
aF0.55710514540531442
aF0.55910883471778161
aF0.5611125240302488
aF0.56311621334271589
aF0.56511990265518308
aF0.56712359196765028
aF0.56912728128011747
aF0.57113097059258466
aF0.57313465990505175
aF0.57513834921751894
aF0.57714203852998613
aF0.57914572784245333
aF0.58114941715492052
aF0.58315310646738772
aF0.5851567957798548
aF0.58716048509232199
aF0.58916417440478919
aF0.59116786371725638
aF0.59317155302972358
aF0.59517524234219066
aF0.59717893165465785
aF0.59918262096712505
aF0.60118631027959224
aF0.60318999959205943
aF0.60519368890452663
aF0.60719737821699371
aF0.6092010675294609
aF0.6112047568419281
aF0.61320844615439529
aF0.61521213546686249
aF0.61721582477932957
aF0.61921951409179676
aF0.62122320340426396
aF0.62322689271673115
aF0.62523058202919835
aF0.62723427134166554
aF0.62923796065413262
aF0.63124164996659982
aF0.63324533927906701
aF0.6352490285915342
aF0.6372527179040014
aF0.63925640721646848
aF0.64126009652893567
aF0.64326378584140287
aF0.64526747515387006
aF0.64727116446633726
aF0.64927485377880445
aF0.65127854309127153
aF0.65328223240373873
aF0.65528592171620592
aF0.65728961102867312
aF0.65929330034114031
aF0.66129698965360739
aF0.66330067896607459
aF0.66530436827854178
aF0.66730805759100897
aF0.66931174690347617
aF0.67131543621594325
aF0.67331912552841044
aF0.67532281484087764
aF0.67732650415334483
aF0.67933019346581203
aF0.68133388277827922
aF0.6833375720907463
aF0.6853412614032135
aF0.68734495071568069
aF0.68934864002814789
aF0.69135232934061508
aF0.69335601865308216
aF0.69535970796554936
aF0.69736339727801655
aF0.69936708659048374
aF0.70137077590295094
aF0.70337446521541813
aF0.70537815452788521
aF0.70738184384035241
aF0.7093855331528196
aF0.7113892224652868
aF0.71339291177775399
aF0.71539660109022107
aF0.71740029040268827
aF0.71940397971515546
aF0.72140766902762266
aF0.72341135834008985
aF0.72541504765255704
aF0.72741873696502413
aF0.72942242627749132
aF0.73142611558995851
aF0.73342980490242571
aF0.7354334942148929
aF0.73743718352735999
aF0.73944087283982718
aF0.74144456215229437
aF0.74344825146476157
aF0.74545194077722876
aF0.74745563008969595
aF0.74945931940216304
aF0.75146300871463023
aF0.75346669802709743
aF0.75547038733956462
aF0.75747407665203181
aF0.7594777659644989
aF0.76148145527696609
aF0.76348514458943328
aF0.76548883390190048
aF0.76749252321436767
aF0.76949621252683487
aF0.77149990183930195
aF0.77350359115176914
aF0.77550728046423634
aF0.77751096977670353
aF0.77951465908917073
aF0.78151834840163781
aF0.783522037714105
aF0.7855257270265722
aF0.78752941633903939
aF0.78953310565150658
aF0.79153679496397367
aF0.79354048427644086
aF0.79554417358890805
aF0.79754786290137525
aF0.79955155221384244
aF0.80155524152630964
aF0.80355893083877672
aF0.80556262015124391
aF0.80756630946371111
aF0.8095699987761783
aF0.8115736880886455
aF0.81357737740111258
aF0.81558106671357977
aF0.81758475602604697
aF0.81958844533851416
aF0.82159213465098135
aF0.82359582396344855
aF0.82559951327591563
aF0.82760320258838282
aF0.82960689190085002
aF0.83161058121331721
aF0.83361427052578441
aF0.83561795983825149
aF0.83762164915071868
aF0.83962533846318588
aF0.84162902777565307
aF0.84363271708812027
aF0.84563640640058746
aF0.84764009571305454
aF0.84964378502552174
aF0.85164747433798893
aF0.85365116365045612
aF0.85565485296292332
aF0.8576585422753904
aF0.85966223158785759
aF0.86166592090032479
aF0.86366961021279198
aF0.86567329952525918
aF0.86767698883772637
aF0.86968067815019345
aF0.87168436746266065
aF0.87368805677512784
aF0.87569174608759504
aF0.87769543540006223
aF0.87969912471252931
aF0.88170281402499651
aF0.8837065033374637
aF0.88571019264993089
aF0.88771388196239809
aF0.88971757127486517
aF0.89172126058733236
aF0.89372494989979956
aF0.89572863921226675
aF0.89773232852473395
aF0.89973601783720114
aF0.90173970714966822
aF0.90374339646213542
aF0.90574708577460261
aF0.90775077508706981
aF0.909754464399537
aF0.91175815371200408
aF0.91376184302447128
aF0.91576553233693847
aF0.91776922164940566
aF0.91977291096187286
aF0.92177660027434005
aF0.92378028958680714
aF0.92578397889927433
aF0.92778766821174152
aF0.92979135752420872
aF0.93179504683667591
aF0.93379873614914299
aF0.93580242546161019
aF0.93780611477407738
aF0.93980980408654458
aF0.94181349339901177
aF0.94381718271147896
aF0.94582087202394605
aF0.94782456133641324
aF0.94982825064888043
aF0.95183193996134763
aF0.95383562927381482
aF0.95583931858628191
aF0.9578430078987491
aF0.95984669721121629
aF0.96185038652368349
aF0.96385407583615068
aF0.96585776514861788
aF0.96786145446108496
aF0.96986514377355215
aF0.97186883308601935
aF0.97387252239848654
aF0.97587621171095373
aF0.97787990102342082
aF0.97988359033588801
aF0.9818872796483552
aF0.9838909689608224
aF0.98589465827328959
aF0.98789834758575668
aF0.98990203689822387
aF0.99190572621069106
aF0.99390941552315826
aF0.99591310483562545
aF0.99791679414809265
aF0.99992048346055973
asS'xaxis'
p5
(lp6
F-0.20510992608749634
aF-0.087934742396642243
aF-0.057742448286366446
aF-0.041812165796219429
aF-0.027540870362346384
aF-0.018060823043019529
aF-0.0090322023821635244
aF-0.003031067407741353
aF0.0053313545558471434
aF0.015549586583725074
aF0.020322983366512972
aF0.024020669835520869
aF0.030446413560219706
aF0.035187069102494008
aF0.03907257360431117
aF0.044666299835062227
aF0.051108440265511465
aF0.05790332365483767
aF0.060570833756817974
aF0.064229832645818483
aF0.067369424028690089
aF0.071058539415051261
aF0.074149842166862989
aF0.076882863913683389
aF0.080608356295888264
aF0.083988218611222659
aF0.08647047709592072
aF0.090230305007072922
aF0.092902789321453461
aF0.095490688857416822
aF0.097752857768116264
aF0.099762895795810783
aF0.1017612749413334
aF0.10358887695568463
aF0.10591346614706641
aF0.10881834716445102
aF0.11150247756141331
aF0.11250652930880234
aF0.11402691664070422
aF0.11564868710720122
aF0.11774475838268239
aF0.11929429008485137
aF0.12139903273400772
aF0.12343670833497424
aF0.12516759034646066
aF0.12766634582793784
aF0.12896842257842234
aF0.13029486083387329
aF0.13170969460594839
aF0.13375616795711232
aF0.13656401124801035
aF0.13931352691329044
aF0.14220866721719688
aF0.14369574947487074
aF0.14577656807625286
aF0.14787537102886711
aF0.14912413632953653
aF0.1514635115740125
aF0.15252082616486176
aF0.15393266578548839
aF0.15550194138892909
aF0.15761067948044047
aF0.1595156014055002
aF0.16057158418223116
aF0.16188746513744534
aF0.16391888023992887
aF0.16561263671770934
aF0.16676330467336012
aF0.16764278805497115
aF0.16881796333465263
aF0.17043995739038112
aF0.1718640749762004
aF0.17290323995421158
aF0.17355391378179366
aF0.17499799885811626
aF0.17601624366107219
aF0.17754319285085635
aF0.17941444029339265
aF0.18014870425143722
aF0.18098511575984827
aF0.18199919985884316
aF0.18347264317339393
aF0.18533491788285597
aF0.18634408301875754
aF0.18734026053668823
aF0.18836026488968385
aF0.1900867527247691
aF0.19151323274136364
aF0.1925861791358788
aF0.19466325504794976
aF0.19566331135298445
aF0.19694239729770463
aF0.19797750850573509
aF0.19886335931980909
aF0.20041117035702227
aF0.20153276199130266
aF0.20277428494512481
aF0.20423586830913262
aF0.20488669767704987
aF0.20574777869277849
aF0.20646744438019543
aF0.2080753717568791
aF0.20973349005540701
aF0.21068667039198627
aF0.21162154557539237
aF0.21280674348540909
aF0.21357684312644429
aF0.21474080005946511
aF0.2160969367976267
aF0.21757648507032504
aF0.21836152630478931
aF0.21954353563793899
aF0.22080192499683557
aF0.22218028456035768
aF0.22366695852465207
aF0.2243966176785919
aF0.22615445969076634
aF0.22725419499160049
aF0.22805228217166132
aF0.22946121513227796
aF0.23008443609073592
aF0.23108031224926762
aF0.23199626983943133
aF0.23290529616341776
aF0.23397935078281953
aF0.23559830208074492
aF0.23657329694930526
aF0.23737024674066654
aF0.23817407919185052
aF0.23887221226414393
aF0.23989958534050954
aF0.24061361269078343
aF0.24182585517654542
aF0.24259721858280214
aF0.24340166347405529
aF0.24460194879656538
aF0.24520981986821486
aF0.24608374268284999
aF0.24668393395045968
aF0.2478039896239323
aF0.24895782671390829
aF0.25012911348521555
aF0.25094797502126714
aF0.25179467827728064
aF0.25305179414968454
aF0.25392823477349219
aF0.25488812278701745
aF0.25591310443073251
aF0.2569660930560152
aF0.2577672813215045
aF0.25865606795940149
aF0.25908234568996003
aF0.2600643107097817
aF0.26100948071910934
aF0.26163959405866127
aF0.26219633416156662
aF0.26306619056856917
aF0.26403693724173027
aF0.26477135009715813
aF0.26618347163464201
aF0.26686305652198877
aF0.26805355252466595
aF0.26864980667754657
aF0.26904653466083978
aF0.27005714534972974
aF0.27078552129590588
aF0.27167243172851213
aF0.27232622608406482
aF0.27299153042440616
aF0.27377664942903795
aF0.27454802547294682
aF0.27542193564992973
aF0.27627168166374633
aF0.27694638647308306
aF0.27765499907544566
aF0.27835321963917764
aF0.27944725147035337
aF0.28018328777802759
aF0.28145330377696387
aF0.28225551277590194
aF0.28303620179736783
aF0.28459068162644358
aF0.2856580159312469
aF0.28672428381262849
aF0.28736715145964886
aF0.28825845590671834
aF0.28912225887830867
aF0.28984224536766695
aF0.29083327061200137
aF0.29163914453008216
aF0.2925185501415255
aF0.29350295520035202
aF0.2949461750835613
aF0.29549885850010521
aF0.29627064964228317
aF0.29738672931594257
aF0.29774575821054466
aF0.29874596713953266
aF0.29968709310015096
aF0.30033905013549678
aF0.30139583005644444
aF0.30228787332010487
aF0.30293985951926339
aF0.30370645950276154
aF0.30459727108139434
aF0.30511043461520077
aF0.30578681148313852
aF0.30682197129752387
aF0.30793157660473952
aF0.30904187503857333
aF0.31019412464500562
aF0.31082409216549339
aF0.31181887273679038
aF0.31266340523300384
aF0.31343745171003917
aF0.31430054502885107
aF0.31490235002743627
aF0.31584119148938422
aF0.31699635067220816
aF0.31786635581465589
aF0.31892303852289416
aF0.31940523300387869
aF0.32040487129426259
aF0.32130451659179549
aF0.32224056124409522
aF0.32342617425238079
aF0.32504840161861193
aF0.32610592035615099
aF0.32670878788964941
aF0.32796247895830249
aF0.32884964506033409
aF0.32934863498111533
aF0.329930219736153
aF0.33092778739582746
aF0.33208142033911398
aF0.33331480658916218
aF0.33448411994246907
aF0.33540476318522439
aF0.33624404911151318
aF0.33746917228126583
aF0.33810909438319237
aF0.33891068122078999
aF0.33959644883645257
aF0.34028486063780955
aF0.34102864479841999
aF0.34189587937865101
aF0.34280088109646945
aF0.34357694376509695
aF0.34465984085254242
aF0.34522121508530318
aF0.34591452640721215
aF0.34725317457895938
aF0.34845199198955795
aF0.34933679290637071
aF0.35023463004750943
aF0.35094927955912342
aF0.35166386102184138
aF0.35240420676892142
aF0.35319492230923127
aF0.3549167052111214
aF0.35561091088995633
aF0.35674386668996133
aF0.35755962714058448
aF0.35868119933232295
aF0.35933780313517616
aF0.35998453012675868
aF0.36126251756786254
aF0.36192544019682427
aF0.36332203978100425
aF0.36422597896390951
aF0.36475258312691256
aF0.36578108095432488
aF0.36664660750725259
aF0.36768099642485275
aF0.36813802253538275
aF0.36883314201368611
aF0.36947729286846992
aF0.37080939181998707
aF0.37176852157437951
aF0.37254213739911191
aF0.37341095654650558
aF0.37419770872465458
aF0.37551058580714941
aF0.37656958217787073
aF0.3770824375473884
aF0.37793614011847582
aF0.37869951264002294
aF0.37914219015465123
aF0.38054544880942243
aF0.3814311538044326
aF0.38210032429422519
aF0.38268816954774576
aF0.38353663235379859
aF0.38468684340971565
aF0.38538525839886589
aF0.38591581620275872
aF0.38658083862624304
aF0.38753471889432972
aF0.38845995349334789
aF0.39007240126101722
aF0.39085732292384956
aF0.39136678556980969
aF0.39214939648653985
aF0.39357881216501955
aF0.39480558795083154
aF0.39569411211441258
aF0.39675404172714368
aF0.39756829538077243
aF0.39862724314513848
aF0.39902176148354784
aF0.39966399724795743
aF0.40060845760450647
aF0.40133410187354962
aF0.40198259813644205
aF0.40281580146350604
aF0.40330705811325795
aF0.40437691800425002
aF0.40522652792027364
aF0.40570414368264701
aF0.4066232538809757
aF0.40743353153479034
aF0.40834438545771312
aF0.40893239305645801
aF0.40979417692007497
aF0.41078938911580265
aF0.41162798774823572
aF0.41246963302698125
aF0.41322385783257742
aF0.41396816985819901
aF0.41523970918029113
aF0.4160106574882787
aF0.41726898560316888
aF0.41794248497490949
aF0.41869017708643624
aF0.42013442742436491
aF0.42144416453634737
aF0.42189291784531036
aF0.42283938078367339
aF0.42384671832063875
aF0.42496317031897451
aF0.42580677929444882
aF0.42694891197421764
aF0.4279443477591755
aF0.42905411152310802
aF0.42997213974398157
aF0.43048378967590289
aF0.43141200578871797
aF0.43186939158627224
aF0.43252048634488599
aF0.43348321977441512
aF0.43399796398687523
aF0.43489752859785924
aF0.43572529481808864
aF0.43627329258204106
aF0.43726813536947212
aF0.43827113333109191
aF0.43904903623630742
aF0.43954335314214976
aF0.44032896112670955
aF0.44174104086272836
aF0.44287179965550183
aF0.44423249566973272
aF0.44558010976966372
aF0.44653411349789141
aF0.44744120528896153
aF0.44842436602510799
aF0.44967228557520655
aF0.45062301615150979
aF0.45166152008309723
aF0.45276079848419698
aF0.45376891663921898
aF0.45457352679207819
aF0.45532510449559777
aF0.45607714784799597
aF0.45680172958212606
aF0.45750172233354919
aF0.45832106701676656
aF0.45932552025264545
aF0.46010916842898458
aF0.46102317204369025
aF0.46193530917437642
aF0.46338844767032178
aF0.46397194459935281
aF0.4657547216714783
aF0.46711269572984698
aF0.46893455619964503
aF0.47034427949958918
aF0.4709235797559565
aF0.47227376707630486
aF0.47325977322845514
aF0.47399191130648399
aF0.47513197335554347
aF0.47577538539373576
aF0.47666771057425339
aF0.47770790892336479
aF0.47933771596454522
aF0.48021080274987982
aF0.48162545181780742
aF0.48273550721986747
aF0.48439864266632554
aF0.48527311570489584
aF0.48627471088711866
aF0.487335454170228
aF0.48858486399116025
aF0.49032210079745786
aF0.49134995021609956
aF0.49217446953183641
aF0.49357908624815772
aF0.49528222666877231
aF0.49621501858381706
aF0.49756166736154411
aF0.5001550040043421
aF0.50174270238833529
aF0.50307989820220422
aF0.50400792280598106
aF0.50557415273523787
aF0.50687080501653992
aF0.50799088304893492
aF0.50892299447501388
aF0.50976294630836227
aF0.5104785339226221
aF0.51166350824340712
aF0.51274803558798843
aF0.51401598776110502
aF0.51583393347509743
aF0.51817996098527519
aF0.51933165647926427
aF0.52144115282990799
aF0.52285405498544779
aF0.52422104066197461
aF0.52526021244487564
aF0.52590927545786337
aF0.52736155264920415
aF0.52939007372932934
aF0.53019850531379387
aF0.53293888881715634
aF0.53483592970786786
aF0.53729287400304793
aF0.53852056358832756
aF0.54038390763759259
aF0.54152517220786733
aF0.54288394632683346
aF0.54517705026590635
aF0.54762818901808319
aF0.54970210260071894
aF0.5515038235135189
aF0.55299474858959352
aF0.55482538056215802
aF0.55660008606302569
aF0.55851558473086393
aF0.55994227845348132
aF0.56106401590682597
aF0.56461130767149714
aF0.5663238650872684
aF0.56826646665847713
aF0.57049825756962824
aF0.57149453813303075
aF0.57258018342376948
aF0.57405803727894411
aF0.57584824820695513
aF0.57734855139310259
aF0.57940477517901556
aF0.58093135787688466
aF0.58375543277386566
aF0.58537651303012617
aF0.58681087683551203
aF0.58925859856095453
aF0.59021403812089934
aF0.59110560115377564
aF0.59455568993035413
aF0.59610442643256056
aF0.5981567860132766
aF0.59899785384852811
aF0.6013765030275865
aF0.60362172776304401
aF0.60584338813775196
aF0.60819711392238374
aF0.61084644022514001
aF0.61288832222004108
aF0.61624748114466166
aF0.61856812544429718
aF0.62197127506415983
aF0.625794947422186
aF0.63009566684823626
aF0.63431942783291928
aF0.63796776540408373
aF0.64217717487648263
aF0.64651244175518641
aF0.64956885794392694
aF0.65425782743288696
aF0.66439357253261599
aF0.67612125740684637
aF0.68028649925687357
aF0.68903751152785464
aF0.69749018577081634
aF0.70826236498045958
aF0.71856811761057737
aF0.73744048555604735
aF0.75091130124314431
aF0.82158974325818757
asS'size'
p7
I500
sb.