(iSomeUtils.numericFunctionClass
NF
p1
(dp2
S'lowValue'
p3
F1.0000000000000001e-09
sS'DataBase'
p4
(dp5
F0.5
F0
sF1
F1.7976931348599999e+308
sF0.85199999999999998
F1.0450496996600001
sF0.021999999999999999
F-2.0140908120200001
sF0.19600000000000001
F-0.85599598549300004
sF0.55600000000000005
F0.140835370397
sF0.90800000000000003
F1.32853932886
sF0.38
F-0.30548078809899998
sF0.95999999999999996
F1.7506860712500001
sF0.61199999999999999
F0.28453554267199999
sF0.96399999999999997
F1.79911810684
sF0.99999000000000005
F4.2648907939200003
sF0.20399999999999999
F-0.82741832070400001
sF1.0000000000000001e-05
F-4.2648907939200003
sF0.66800000000000004
F0.43439724225999998
sF0.13200000000000001
F-1.1169867278800001
sF0.26000000000000001
F-0.643345405393
sF0.92000000000000004
F1.4050715603099999
sF0.436
F-0.161118588511
sF0.72399999999999998
F0.59476584680199995
sF0.017999999999999999
F-2.09692742916
sF0.058000000000000003
F-1.57178681651
sF0.22
F-0.772193214189
sF0.316
F-0.478913734112
sF0.49199999999999999
F-0.020054370352999999
sF0.83599999999999997
F0.97815028626199996
sF0.17199999999999999
F-0.94629135796200003
sF0.54000000000000004
F0.100433720511
sF0.89200000000000002
F1.23723459916
sF0.078
F-1.41865370617
sF0.372
F-0.32656092741199999
sF0.99199999999999999
F2.4089155458199998
sF0.59599999999999997
F0.24300696741
sF0.94799999999999995
F1.6257633862300001
sF0.050000000000000003
F-1.64485362695
sF0.10000000000000001
F-1.28155156554
sF9.9999999999999995e-08
F-5.1993375821900001
sF0.252
F-0.66820929972599996
sF0.97599999999999998
F1.9773684281799999
sF0.42799999999999999
F-0.181468316528
sF0.70799999999999996
F0.54755135332600002
sF0.14000000000000001
F-1.08031934081
sF0.95199999999999996
F1.6645628612000001
sF0.65200000000000002
F0.39072570019699998
sF0.22800000000000001
F-0.74544954818099995
sF9.9999999999999995e-07
F-4.7534243088299997
sF0.76400000000000001
F0.71922873044000002
sF0.93600000000000005
F1.52203624174
sF0.308
F-0.50152739897800003
sF0.48399999999999999
F-0.040116810184999997
sF0.089999999999999997
F-1.34075503369
sF0.81999999999999995
F0.91536508784299997
sF0.042000000000000003
F-1.7279343223900001
sF0.52400000000000002
F0.060195411728999997
sF0.876
F1.15522084661
sF0.36399999999999999
F-0.34778720427900001
sF0.57999999999999996
F0.20189347914200001
sF0.93200000000000005
F1.4908533552500001
sF0.098000000000000004
F-1.29303197614
sF0.91200000000000003
F1.35317415455
sF0.63600000000000001
F0.34778720427900001
sF0.98799999999999999
F2.2571292444900002
sF0.41999999999999998
F-0.20189347914200001
sF0.69199999999999995
F0.50152739897800003
sF0.034000000000000002
F-1.8250068211499999
sF0.10199999999999999
F-1.27023762239
sF0.014
F-2.1972863766400001
sF0.748
F0.66820929972599996
sF0.29999999999999999
F-0.52440051270800003
sF0.124
F-1.15522084661
sF0.47599999999999998
F-0.060195411728999997
sF0.999
F3.0902323061699999
sF0.99990000000000001
F3.7190164854600001
sF0.80400000000000005
F0.85599598549300004
sF0.16400000000000001
F-0.97815028626199996
sF0.50800000000000001
F0.020054370352999999
sF0.85999999999999999
F1.08031934081
sF0.35599999999999998
F-0.36917136250299998
sF0.56399999999999995
F0.161118588511
sF0.91600000000000004
F1.3786587286200001
sF0.62
F0.30548078809899998
sF0.97199999999999998
F1.9110356475500001
sF0.41199999999999998
F-0.22240322692699999
sF0.67600000000000005
F0.45654238384000001
sF0.066000000000000003
F-1.50626172328
sF0.11
F-1.22652812004
sF0.73199999999999998
F0.61887304054900005
sF0.29199999999999998
F-0.54755135332600002
sF0.46800000000000003
F-0.080298312892100002
sF0.082000000000000003
F-1.3917437794
sF0.78800000000000003
F0.79950094313300002
sF0.01
F-2.3263478740400001
sF0.062
F-1.5381988585799999
sF0.025999999999999999
F-1.94313375111
sF0.84399999999999997
F1.01103432814
sF0.99999990000000005
F5.1993375822900001
sF0.34799999999999998
F-0.39072570019699998
sF0.54800000000000004
F0.12060993411900001
sF0.90000000000000002
F1.28155156554
sF0.094
F-1.31651871842
sF0.60399999999999998
F0.26371439822199999
sF0.95599999999999996
F1.70604339689
sF0.40400000000000003
F-0.24300696741
sF0.66000000000000003
F0.412463129441
sF0.001
F-3.0902323061699999
sF0.108
F-1.23723459916
sF0.71599999999999997
F0.57099947311300003
sF0.11600000000000001
F-1.19522278144
sF0.28399999999999997
F-0.57099947311300003
sF0.46000000000000002
F-0.100433720511
sF0.77200000000000002
F0.74544954818099995
sF0.188
F-0.88529044882999997
sF0.156
F-1.01103432814
sF0.24399999999999999
F-0.69349334628299997
sF0.82799999999999996
F0.94629135796200003
sF0.78000000000000003
F0.772193214189
sF0.34000000000000002
F-0.412463129441
sF0.53200000000000003
F0.080298312892100002
sF0.88400000000000001
F1.19522278144
sF0.045999999999999999
F-1.6849407678699999
sF0.21199999999999999
F-0.79950094313300002
sF0.58799999999999997
F0.22240322692699999
sF0.98999999999999999
F2.3263478740400001
sF0.93999999999999995
F1.5547735946000001
sF1e-08
F-5.61200124427
sF0.39600000000000002
F-0.26371439822199999
sF0.64400000000000002
F0.36917136250299998
sF0.996
F2.6520698078999998
sF0.106
F-1.24808481113
sF0.69999999999999996
F0.52440051270800003
sF0.073999999999999996
F-1.4466320671599999
sF0.99999899999999997
F4.7534243088199997
sF0.27600000000000002
F-0.59476584680199995
sF0.98399999999999999
F2.14441062091
sF1.0000000000000001e-09
F-5.9978070105799999
sF0.45200000000000001
F-0.12060993411900001
sF0.75600000000000001
F0.69349334628299997
sF0.037999999999999999
F-1.77438191034
sF0.0001
F-3.7190164854600001
sF0.029999999999999999
F-1.8807936081500001
sF0.81200000000000006
F0.88529044882999997
sF0.94399999999999995
F1.5892675570499999
sF0.96799999999999997
F1.85217985877
sF0.070000000000000007
F-1.47579102818
sF0.33200000000000002
F-0.43439724225999998
sF0.51600000000000001
F0.040116810184999997
sF0.86799999999999999
F1.1169867278800001
sF0.17999999999999999
F-0.91536508784299997
sF0.57199999999999995
F0.181468316528
sF0.90400000000000003
F1.30468538523
sF0.92400000000000004
F1.4325027208300001
sF0.38800000000000001
F-0.28453554267199999
sF0.085999999999999993
F-1.3658055625700001
sF0.628
F0.32656092741199999
sF0.97999999999999998
F2.05374891063
sF0.053999999999999999
F-1.6072478918999999
sF0.68400000000000005
F0.478913734112
sF0.26800000000000002
F-0.61887304054900005
sF0.92800000000000005
F1.46105626919
sF0.44400000000000001
F-0.140835370397
sF0.99999998999999995
F5.6120012433099999
sF0.73999999999999999
F0.643345405393
sF0.14799999999999999
F-1.0450496996600001
sF0.23599999999999999
F-0.71922873044000002
sF0.79600000000000004
F0.82741832070400001
sF0.32400000000000001
F-0.45654238384000001
sF0.99999999900000003
F5.9978070195999997
ssS'binSize'
p6
F1
sS'References'
p7
(lp8
F1.0000000000000001e-09
aF1e-08
aF9.9999999999999995e-08
aF9.9999999999999995e-07
aF1.0000000000000001e-05
aF0.0001
aF0.001
aF0.01
aF0.014
aF0.017999999999999999
aF0.021999999999999999
aF0.025999999999999999
aF0.029999999999999999
aF0.034000000000000002
aF0.037999999999999999
aF0.042000000000000003
aF0.045999999999999999
aF0.050000000000000003
aF0.053999999999999999
aF0.058000000000000003
aF0.062
aF0.066000000000000003
aF0.070000000000000007
aF0.073999999999999996
aF0.078
aF0.082000000000000003
aF0.085999999999999993
aF0.089999999999999997
aF0.094
aF0.098000000000000004
aF0.10000000000000001
aF0.10199999999999999
aF0.106
aF0.108
aF0.11
aF0.11600000000000001
aF0.124
aF0.13200000000000001
aF0.14000000000000001
aF0.14799999999999999
aF0.156
aF0.16400000000000001
aF0.17199999999999999
aF0.17999999999999999
aF0.188
aF0.19600000000000001
aF0.20399999999999999
aF0.21199999999999999
aF0.22
aF0.22800000000000001
aF0.23599999999999999
aF0.24399999999999999
aF0.252
aF0.26000000000000001
aF0.26800000000000002
aF0.27600000000000002
aF0.28399999999999997
aF0.29199999999999998
aF0.29999999999999999
aF0.308
aF0.316
aF0.32400000000000001
aF0.33200000000000002
aF0.34000000000000002
aF0.34799999999999998
aF0.35599999999999998
aF0.36399999999999999
aF0.372
aF0.38
aF0.38800000000000001
aF0.39600000000000002
aF0.40400000000000003
aF0.41199999999999998
aF0.41999999999999998
aF0.42799999999999999
aF0.436
aF0.44400000000000001
aF0.45200000000000001
aF0.46000000000000002
aF0.46800000000000003
aF0.47599999999999998
aF0.48399999999999999
aF0.49199999999999999
aF0.5
aF0.50800000000000001
aF0.51600000000000001
aF0.52400000000000002
aF0.53200000000000003
aF0.54000000000000004
aF0.54800000000000004
aF0.55600000000000005
aF0.56399999999999995
aF0.57199999999999995
aF0.57999999999999996
aF0.58799999999999997
aF0.59599999999999997
aF0.60399999999999998
aF0.61199999999999999
aF0.62
aF0.628
aF0.63600000000000001
aF0.64400000000000002
aF0.65200000000000002
aF0.66000000000000003
aF0.66800000000000004
aF0.67600000000000005
aF0.68400000000000005
aF0.69199999999999995
aF0.69999999999999996
aF0.70799999999999996
aF0.71599999999999997
aF0.72399999999999998
aF0.73199999999999998
aF0.73999999999999999
aF0.748
aF0.75600000000000001
aF0.76400000000000001
aF0.77200000000000002
aF0.78000000000000003
aF0.78800000000000003
aF0.79600000000000004
aF0.80400000000000005
aF0.81200000000000006
aF0.81999999999999995
aF0.82799999999999996
aF0.83599999999999997
aF0.84399999999999997
aF0.85199999999999998
aF0.85999999999999999
aF0.86799999999999999
aF0.876
aF0.88400000000000001
aF0.89200000000000002
aF0.90000000000000002
aF0.90400000000000003
aF0.90800000000000003
aF0.91200000000000003
aF0.91600000000000004
aF0.92000000000000004
aF0.92400000000000004
aF0.92800000000000005
aF0.93200000000000005
aF0.93600000000000005
aF0.93999999999999995
aF0.94399999999999995
aF0.94799999999999995
aF0.95199999999999996
aF0.95599999999999996
aF0.95999999999999996
aF0.96399999999999997
aF0.96799999999999997
aF0.97199999999999998
aF0.97599999999999998
aF0.97999999999999998
aF0.98399999999999999
aF0.98799999999999999
aF0.98999999999999999
aF0.99199999999999999
aF0.996
aF0.999
aF0.99990000000000001
aF0.99999000000000005
aF0.99999899999999997
aF0.99999990000000005
aF0.99999998999999995
aF0.99999999900000003
aF1
asS'refSize'
p9
I167
sS'OriginVar'
p10
S'noname'
p11
sS'upValue'
p12
F1
sb.
